
lab13.elf:     file format elf32-littlearm

Sections:
Idx Name          Size      VMA       LMA       File off  Algn
  0 .text         00005a0c  0c100000  0c100000  00008000  2**2
                  CONTENTS, ALLOC, LOAD, READONLY, CODE
  1 .rodata       000017dc  0c105a0c  0c105a0c  0000da0c  2**2
                  CONTENTS, ALLOC, LOAD, READONLY, DATA
  2 .ARM.exidx    00000008  0c1071e8  0c1071e8  0000f1e8  2**2
                  CONTENTS, ALLOC, LOAD, READONLY, DATA
  3 .data         00000009  0c1071f0  0c1071f0  0000f1f0  2**0
                  CONTENTS, ALLOC, LOAD, DATA
  4 .bss          000096bc  0c1071fc  0c1071fc  0000f1f9  2**2
                  ALLOC
  5 .debug_abbrev 00000a32  00000000  00000000  0000f1f9  2**0
                  CONTENTS, READONLY, DEBUGGING
  6 .debug_info   00001ec9  00000000  00000000  0000fc2b  2**0
                  CONTENTS, READONLY, DEBUGGING
  7 .debug_line   00000e1e  00000000  00000000  00011af4  2**0
                  CONTENTS, READONLY, DEBUGGING
  8 .debug_macinfo 00035e66  00000000  00000000  00012912  2**0
                  CONTENTS, READONLY, DEBUGGING
  9 .debug_loc    000015d4  00000000  00000000  00048778  2**0
                  CONTENTS, READONLY, DEBUGGING
 10 .debug_pubnames 00000926  00000000  00000000  00049d4c  2**0
                  CONTENTS, READONLY, DEBUGGING
 11 .debug_pubtypes 0000024c  00000000  00000000  0004a672  2**0
                  CONTENTS, READONLY, DEBUGGING
 12 .debug_aranges 00000160  00000000  00000000  0004a8be  2**0
                  CONTENTS, READONLY, DEBUGGING
 13 .debug_str    000008f5  00000000  00000000  0004aa1e  2**0
                  CONTENTS, READONLY, DEBUGGING
 14 .comment      0000002a  00000000  00000000  0004b313  2**0
                  CONTENTS, READONLY
 15 .ARM.attributes 00000032  00000000  00000000  0004b33d  2**0
                  CONTENTS, READONLY
 16 .debug_frame  00001314  00000000  00000000  0004b370  2**2
                  CONTENTS, READONLY, DEBUGGING

Disassembly of section .text:

0c100000 <delete_task>:
#include <s3c44b0x.h>

static task_t tasks[MAX_TASKS];   /* Lista ordenada de TCBs */

void delete_task( uint32 id )
{
 c100000:	e1a0c00d 	mov	ip, sp
 c100004:	e92dd800 	push	{fp, ip, lr, pc}
 c100008:	e24cb004 	sub	fp, ip, #4
 c10000c:	e24dd008 	sub	sp, sp, #8
 c100010:	e50b0010 	str	r0, [fp, #-16]
    tasks[id].pfunction = NULL;
 c100014:	e59f3074 	ldr	r3, [pc, #116]	; c100090 <delete_task+0x90>
 c100018:	e51b2010 	ldr	r2, [fp, #-16]
 c10001c:	e3a01000 	mov	r1, #0
 c100020:	e7831202 	str	r1, [r3, r2, lsl #4]
    tasks[id].period = 0; 
 c100024:	e59f1064 	ldr	r1, [pc, #100]	; c100090 <delete_task+0x90>
 c100028:	e51b2010 	ldr	r2, [fp, #-16]
 c10002c:	e3a03004 	mov	r3, #4
 c100030:	e1a02202 	lsl	r2, r2, #4
 c100034:	e0812002 	add	r2, r1, r2
 c100038:	e0823003 	add	r3, r2, r3
 c10003c:	e3a02000 	mov	r2, #0
 c100040:	e5832000 	str	r2, [r3]
    tasks[id].ticks = 0;
 c100044:	e59f1044 	ldr	r1, [pc, #68]	; c100090 <delete_task+0x90>
 c100048:	e51b2010 	ldr	r2, [fp, #-16]
 c10004c:	e3a03008 	mov	r3, #8
 c100050:	e1a02202 	lsl	r2, r2, #4
 c100054:	e0812002 	add	r2, r1, r2
 c100058:	e0823003 	add	r3, r2, r3
 c10005c:	e3a02000 	mov	r2, #0
 c100060:	e5832000 	str	r2, [r3]
    tasks[id].ready = FALSE;     
 c100064:	e59f1024 	ldr	r1, [pc, #36]	; c100090 <delete_task+0x90>
 c100068:	e51b2010 	ldr	r2, [fp, #-16]
 c10006c:	e3a03008 	mov	r3, #8
 c100070:	e1a02202 	lsl	r2, r2, #4
 c100074:	e0812002 	add	r2, r1, r2
 c100078:	e0823003 	add	r3, r2, r3
 c10007c:	e3a02000 	mov	r2, #0
 c100080:	e5c32004 	strb	r2, [r3, #4]
}
 c100084:	e24bd00c 	sub	sp, fp, #12
 c100088:	e89d6800 	ldm	sp, {fp, sp, lr}
 c10008c:	e12fff1e 	bx	lr
 c100090:	0c1071fc 	.word	0x0c1071fc

0c100094 <create_task>:

uint32 create_task( void (*pfunction)( void ), uint32 period )
{
 c100094:	e1a0c00d 	mov	ip, sp
 c100098:	e92dd800 	push	{fp, ip, lr, pc}
 c10009c:	e24cb004 	sub	fp, ip, #4
 c1000a0:	e24dd010 	sub	sp, sp, #16
 c1000a4:	e50b0018 	str	r0, [fp, #-24]	; 0xffffffe8
 c1000a8:	e50b101c 	str	r1, [fp, #-28]	; 0xffffffe4
    uint32 id;
    
    for( id=0; id<MAX_TASKS && tasks[id].pfunction ; id++ ); /* Busca la primera entrada libre (con función no NULL) de la lista de TCB */
 c1000ac:	e3a03000 	mov	r3, #0
 c1000b0:	e50b3010 	str	r3, [fp, #-16]
 c1000b4:	ea000002 	b	c1000c4 <create_task+0x30>
 c1000b8:	e51b3010 	ldr	r3, [fp, #-16]
 c1000bc:	e2833001 	add	r3, r3, #1
 c1000c0:	e50b3010 	str	r3, [fp, #-16]
 c1000c4:	e51b3010 	ldr	r3, [fp, #-16]
 c1000c8:	e3530009 	cmp	r3, #9
 c1000cc:	8a000004 	bhi	c1000e4 <create_task+0x50>
 c1000d0:	e59f309c 	ldr	r3, [pc, #156]	; c100174 <create_task+0xe0>
 c1000d4:	e51b2010 	ldr	r2, [fp, #-16]
 c1000d8:	e7933202 	ldr	r3, [r3, r2, lsl #4]
 c1000dc:	e3530000 	cmp	r3, #0
 c1000e0:	1afffff4 	bne	c1000b8 <create_task+0x24>
    
    tasks[id].pfunction = pfunction;
 c1000e4:	e59f3088 	ldr	r3, [pc, #136]	; c100174 <create_task+0xe0>
 c1000e8:	e51b2010 	ldr	r2, [fp, #-16]
 c1000ec:	e51b1018 	ldr	r1, [fp, #-24]	; 0xffffffe8
 c1000f0:	e7831202 	str	r1, [r3, r2, lsl #4]
    tasks[id].period = period; 
 c1000f4:	e59f1078 	ldr	r1, [pc, #120]	; c100174 <create_task+0xe0>
 c1000f8:	e51b2010 	ldr	r2, [fp, #-16]
 c1000fc:	e3a03004 	mov	r3, #4
 c100100:	e1a02202 	lsl	r2, r2, #4
 c100104:	e0812002 	add	r2, r1, r2
 c100108:	e0823003 	add	r3, r2, r3
 c10010c:	e51b201c 	ldr	r2, [fp, #-28]	; 0xffffffe4
 c100110:	e5832000 	str	r2, [r3]
    tasks[id].ticks = 0;
 c100114:	e59f1058 	ldr	r1, [pc, #88]	; c100174 <create_task+0xe0>
 c100118:	e51b2010 	ldr	r2, [fp, #-16]
 c10011c:	e3a03008 	mov	r3, #8
 c100120:	e1a02202 	lsl	r2, r2, #4
 c100124:	e0812002 	add	r2, r1, r2
 c100128:	e0823003 	add	r3, r2, r3
 c10012c:	e3a02000 	mov	r2, #0
 c100130:	e5832000 	str	r2, [r3]
    tasks[id].ready = FALSE;     
 c100134:	e59f1038 	ldr	r1, [pc, #56]	; c100174 <create_task+0xe0>
 c100138:	e51b2010 	ldr	r2, [fp, #-16]
 c10013c:	e3a03008 	mov	r3, #8
 c100140:	e1a02202 	lsl	r2, r2, #4
 c100144:	e0812002 	add	r2, r1, r2
 c100148:	e0823003 	add	r3, r2, r3
 c10014c:	e3a02000 	mov	r2, #0
 c100150:	e5c32004 	strb	r2, [r3, #4]
        
    (*pfunction)();     /* Asume que la primera llamada a la tarea la inicializa */
 c100154:	e51b3018 	ldr	r3, [fp, #-24]	; 0xffffffe8
 c100158:	e1a0e00f 	mov	lr, pc
 c10015c:	e12fff13 	bx	r3

    return id;    
 c100160:	e51b3010 	ldr	r3, [fp, #-16]
}
 c100164:	e1a00003 	mov	r0, r3
 c100168:	e24bd00c 	sub	sp, fp, #12
 c10016c:	e89d6800 	ldm	sp, {fp, sp, lr}
 c100170:	e12fff1e 	bx	lr
 c100174:	0c1071fc 	.word	0x0c1071fc

0c100178 <scheduler_init>:

void scheduler_init( void )
{
 c100178:	e1a0c00d 	mov	ip, sp
 c10017c:	e92dd800 	push	{fp, ip, lr, pc}
 c100180:	e24cb004 	sub	fp, ip, #4
 c100184:	e24dd008 	sub	sp, sp, #8
    uint32 id;
    
    for( id=0; id<MAX_TASKS; id++ )
 c100188:	e3a03000 	mov	r3, #0
 c10018c:	e50b3010 	str	r3, [fp, #-16]
 c100190:	ea000004 	b	c1001a8 <scheduler_init+0x30>
        delete_task( id );
 c100194:	e51b0010 	ldr	r0, [fp, #-16]
 c100198:	ebffff98 	bl	c100000 <delete_task>

void scheduler_init( void )
{
    uint32 id;
    
    for( id=0; id<MAX_TASKS; id++ )
 c10019c:	e51b3010 	ldr	r3, [fp, #-16]
 c1001a0:	e2833001 	add	r3, r3, #1
 c1001a4:	e50b3010 	str	r3, [fp, #-16]
 c1001a8:	e51b3010 	ldr	r3, [fp, #-16]
 c1001ac:	e3530009 	cmp	r3, #9
 c1001b0:	9afffff7 	bls	c100194 <scheduler_init+0x1c>
        delete_task( id );
};
 c1001b4:	e24bd00c 	sub	sp, fp, #12
 c1001b8:	e89d6800 	ldm	sp, {fp, sp, lr}
 c1001bc:	e12fff1e 	bx	lr

0c1001c0 <scheduler>:

void scheduler( void ) /* Esta funcion es la ISR del timer0 */
{
 c1001c0:	e52dc004 	push	{ip}		; (str ip, [sp, #-4]!)
 c1001c4:	e1a0c00d 	mov	ip, sp
 c1001c8:	e92dd80f 	push	{r0, r1, r2, r3, fp, ip, lr, pc}
 c1001cc:	e24cb004 	sub	fp, ip, #4
 c1001d0:	e24dd008 	sub	sp, sp, #8
    uint32 id;
    
    I_ISPC = BIT_TIMER0;    /* Borra el bit de interrupción pendiente */
 c1001d4:	e59f3108 	ldr	r3, [pc, #264]	; c1002e4 <scheduler+0x124>
 c1001d8:	e3a02a02 	mov	r2, #8192	; 0x2000
 c1001dc:	e5832000 	str	r2, [r3]

    for( id=0; id<MAX_TASKS; id++ )                     /* Recorre la lista completa de TCB */
 c1001e0:	e3a03000 	mov	r3, #0
 c1001e4:	e50b3020 	str	r3, [fp, #-32]	; 0xffffffe0
 c1001e8:	ea000036 	b	c1002c8 <scheduler+0x108>
        if( tasks[id].pfunction )
 c1001ec:	e59f30f4 	ldr	r3, [pc, #244]	; c1002e8 <scheduler+0x128>
 c1001f0:	e51b2020 	ldr	r2, [fp, #-32]	; 0xffffffe0
 c1001f4:	e7933202 	ldr	r3, [r3, r2, lsl #4]
 c1001f8:	e3530000 	cmp	r3, #0
 c1001fc:	0a00002e 	beq	c1002bc <scheduler+0xfc>
            if( ++tasks[id].ticks == tasks[id].period ) /* Si el contador de ticks equivale a su periodo de ejecución: */
 c100200:	e59f10e0 	ldr	r1, [pc, #224]	; c1002e8 <scheduler+0x128>
 c100204:	e51b2020 	ldr	r2, [fp, #-32]	; 0xffffffe0
 c100208:	e3a03008 	mov	r3, #8
 c10020c:	e1a02202 	lsl	r2, r2, #4
 c100210:	e0812002 	add	r2, r1, r2
 c100214:	e0823003 	add	r3, r2, r3
 c100218:	e5933000 	ldr	r3, [r3]
 c10021c:	e2832001 	add	r2, r3, #1
 c100220:	e59f00c0 	ldr	r0, [pc, #192]	; c1002e8 <scheduler+0x128>
 c100224:	e51b1020 	ldr	r1, [fp, #-32]	; 0xffffffe0
 c100228:	e3a03008 	mov	r3, #8
 c10022c:	e1a01201 	lsl	r1, r1, #4
 c100230:	e0801001 	add	r1, r0, r1
 c100234:	e0813003 	add	r3, r1, r3
 c100238:	e5832000 	str	r2, [r3]
 c10023c:	e59f10a4 	ldr	r1, [pc, #164]	; c1002e8 <scheduler+0x128>
 c100240:	e51b2020 	ldr	r2, [fp, #-32]	; 0xffffffe0
 c100244:	e3a03008 	mov	r3, #8
 c100248:	e1a02202 	lsl	r2, r2, #4
 c10024c:	e0812002 	add	r2, r1, r2
 c100250:	e0823003 	add	r3, r2, r3
 c100254:	e5932000 	ldr	r2, [r3]
 c100258:	e59f0088 	ldr	r0, [pc, #136]	; c1002e8 <scheduler+0x128>
 c10025c:	e51b1020 	ldr	r1, [fp, #-32]	; 0xffffffe0
 c100260:	e3a03004 	mov	r3, #4
 c100264:	e1a01201 	lsl	r1, r1, #4
 c100268:	e0801001 	add	r1, r0, r1
 c10026c:	e0813003 	add	r3, r1, r3
 c100270:	e5933000 	ldr	r3, [r3]
 c100274:	e1520003 	cmp	r2, r3
 c100278:	1a00000f 	bne	c1002bc <scheduler+0xfc>
            {
                tasks[id].ticks = 0;                    /* Inicializa a 0 su contador de ticks */
 c10027c:	e59f1064 	ldr	r1, [pc, #100]	; c1002e8 <scheduler+0x128>
 c100280:	e51b2020 	ldr	r2, [fp, #-32]	; 0xffffffe0
 c100284:	e3a03008 	mov	r3, #8
 c100288:	e1a02202 	lsl	r2, r2, #4
 c10028c:	e0812002 	add	r2, r1, r2
 c100290:	e0823003 	add	r3, r2, r3
 c100294:	e3a02000 	mov	r2, #0
 c100298:	e5832000 	str	r2, [r3]
                tasks[id].ready = TRUE;                 /* Pasa la tarea a estado "preparado" */
 c10029c:	e59f1044 	ldr	r1, [pc, #68]	; c1002e8 <scheduler+0x128>
 c1002a0:	e51b2020 	ldr	r2, [fp, #-32]	; 0xffffffe0
 c1002a4:	e3a03008 	mov	r3, #8
 c1002a8:	e1a02202 	lsl	r2, r2, #4
 c1002ac:	e0812002 	add	r2, r1, r2
 c1002b0:	e0823003 	add	r3, r2, r3
 c1002b4:	e3a02001 	mov	r2, #1
 c1002b8:	e5c32004 	strb	r2, [r3, #4]
{
    uint32 id;
    
    I_ISPC = BIT_TIMER0;    /* Borra el bit de interrupción pendiente */

    for( id=0; id<MAX_TASKS; id++ )                     /* Recorre la lista completa de TCB */
 c1002bc:	e51b3020 	ldr	r3, [fp, #-32]	; 0xffffffe0
 c1002c0:	e2833001 	add	r3, r3, #1
 c1002c4:	e50b3020 	str	r3, [fp, #-32]	; 0xffffffe0
 c1002c8:	e51b3020 	ldr	r3, [fp, #-32]	; 0xffffffe0
 c1002cc:	e3530009 	cmp	r3, #9
 c1002d0:	9affffc5 	bls	c1001ec <scheduler+0x2c>
            if( ++tasks[id].ticks == tasks[id].period ) /* Si el contador de ticks equivale a su periodo de ejecución: */
            {
                tasks[id].ticks = 0;                    /* Inicializa a 0 su contador de ticks */
                tasks[id].ready = TRUE;                 /* Pasa la tarea a estado "preparado" */
            };
};
 c1002d4:	e24bd01c 	sub	sp, fp, #28
 c1002d8:	e89d680f 	ldm	sp, {r0, r1, r2, r3, fp, sp, lr}
 c1002dc:	e49dc004 	pop	{ip}		; (ldr ip, [sp], #4)
 c1002e0:	e25ef004 	subs	pc, lr, #4
 c1002e4:	01e00024 	.word	0x01e00024
 c1002e8:	0c1071fc 	.word	0x0c1071fc

0c1002ec <dispacher>:
    
void dispacher( void )
{
 c1002ec:	e1a0c00d 	mov	ip, sp
 c1002f0:	e92dd800 	push	{fp, ip, lr, pc}
 c1002f4:	e24cb004 	sub	fp, ip, #4
 c1002f8:	e24dd008 	sub	sp, sp, #8
    uint32 id;
    
    for( id=0; id<MAX_TASKS; id++ )                     /* Recorre la lista completa de TCB */
 c1002fc:	e3a03000 	mov	r3, #0
 c100300:	e50b3010 	str	r3, [fp, #-16]
 c100304:	ea000018 	b	c10036c <dispacher+0x80>
        if( tasks[id].ready == TRUE )                   /* Si la tarea está en estado "preparado": */
 c100308:	e59f1074 	ldr	r1, [pc, #116]	; c100384 <dispacher+0x98>
 c10030c:	e51b2010 	ldr	r2, [fp, #-16]
 c100310:	e3a03008 	mov	r3, #8
 c100314:	e1a02202 	lsl	r2, r2, #4
 c100318:	e0812002 	add	r2, r1, r2
 c10031c:	e0823003 	add	r3, r2, r3
 c100320:	e5d33004 	ldrb	r3, [r3, #4]
 c100324:	e3530001 	cmp	r3, #1
 c100328:	1a00000c 	bne	c100360 <dispacher+0x74>
        {
            (*tasks[id].pfunction)();                   /* La ejecuta */
 c10032c:	e59f3050 	ldr	r3, [pc, #80]	; c100384 <dispacher+0x98>
 c100330:	e51b2010 	ldr	r2, [fp, #-16]
 c100334:	e7933202 	ldr	r3, [r3, r2, lsl #4]
 c100338:	e1a0e00f 	mov	lr, pc
 c10033c:	e12fff13 	bx	r3
            tasks[id].ready = FALSE;                    /* Pasa la tarea a estado "no preparado" */
 c100340:	e59f103c 	ldr	r1, [pc, #60]	; c100384 <dispacher+0x98>
 c100344:	e51b2010 	ldr	r2, [fp, #-16]
 c100348:	e3a03008 	mov	r3, #8
 c10034c:	e1a02202 	lsl	r2, r2, #4
 c100350:	e0812002 	add	r2, r1, r2
 c100354:	e0823003 	add	r3, r2, r3
 c100358:	e3a02000 	mov	r2, #0
 c10035c:	e5c32004 	strb	r2, [r3, #4]
    
void dispacher( void )
{
    uint32 id;
    
    for( id=0; id<MAX_TASKS; id++ )                     /* Recorre la lista completa de TCB */
 c100360:	e51b3010 	ldr	r3, [fp, #-16]
 c100364:	e2833001 	add	r3, r3, #1
 c100368:	e50b3010 	str	r3, [fp, #-16]
 c10036c:	e51b3010 	ldr	r3, [fp, #-16]
 c100370:	e3530009 	cmp	r3, #9
 c100374:	9affffe3 	bls	c100308 <dispacher+0x1c>
        if( tasks[id].ready == TRUE )                   /* Si la tarea está en estado "preparado": */
        {
            (*tasks[id].pfunction)();                   /* La ejecuta */
            tasks[id].ready = FALSE;                    /* Pasa la tarea a estado "no preparado" */
        }
};
 c100378:	e24bd00c 	sub	sp, fp, #12
 c10037c:	e89d6800 	ldm	sp, {fp, sp, lr}
 c100380:	e12fff1e 	bx	lr
 c100384:	0c1071fc 	.word	0x0c1071fc

0c100388 <main>:
void isr_keypad( void ) __attribute__ ((interrupt ("IRQ")));

/*******************************************************************/

void main( void )
{
 c100388:	e1a0c00d 	mov	ip, sp
 c10038c:	e92dd800 	push	{fp, ip, lr, pc}
 c100390:	e24cb004 	sub	fp, ip, #4
    sys_init();      /* Inicializa el sistema */
 c100394:	eb000b8a 	bl	c1031c4 <sys_init>
    timers_init();
 c100398:	eb000ee3 	bl	c103f2c <timers_init>
    uart0_init();
 c10039c:	eb001178 	bl	c104984 <uart0_init>
    leds_init();
 c1003a0:	eb0007af 	bl	c102264 <leds_init>
    segs_init();
 c1003a4:	eb000b51 	bl	c1030f0 <segs_init>
    rtc_init();
 c1003a8:	eb000905 	bl	c1027c4 <rtc_init>
    pbs_init();
 c1003ac:	eb000829 	bl	c102458 <pbs_init>
    keypad_init();
 c1003b0:	eb00027e 	bl	c100db0 <keypad_init>
    lcd_init();
 c1003b4:	eb0002ff 	bl	c100fb8 <lcd_init>

    //Limpiamos y encendemos el lcd
    lcd_clear();
 c1003b8:	eb000387 	bl	c1011dc <lcd_clear>
    lcd_on();
 c1003bc:	eb00035e 	bl	c10113c <lcd_on>

    uart0_puts( "\n\n Ejecutando kernel de planificación no expropiativa\n" );
 c1003c0:	e59f00c8 	ldr	r0, [pc, #200]	; c100490 <main+0x108>
 c1003c4:	eb0011ad 	bl	c104a80 <uart0_puts>
    uart0_puts( " --------------------------------------------------\n\n" ) ;
 c1003c8:	e59f00c4 	ldr	r0, [pc, #196]	; c100494 <main+0x10c>
 c1003cc:	eb0011ab 	bl	c104a80 <uart0_puts>

    flagTask5  = FALSE;               /* Inicializa flags */
 c1003d0:	e59f30c0 	ldr	r3, [pc, #192]	; c100498 <main+0x110>
 c1003d4:	e3a02000 	mov	r2, #0
 c1003d8:	e5c32000 	strb	r2, [r3]
    flagTask6  = FALSE;
 c1003dc:	e59f30b8 	ldr	r3, [pc, #184]	; c10049c <main+0x114>
 c1003e0:	e3a02000 	mov	r2, #0
 c1003e4:	e5c32000 	strb	r2, [r3]
    flagTask8  = FALSE;
 c1003e8:	e59f30b0 	ldr	r3, [pc, #176]	; c1004a0 <main+0x118>
 c1003ec:	e3a02000 	mov	r2, #0
 c1003f0:	e5c32000 	strb	r2, [r3]
    flagPb     = FALSE;
 c1003f4:	e59f30a8 	ldr	r3, [pc, #168]	; c1004a4 <main+0x11c>
 c1003f8:	e3a02000 	mov	r2, #0
 c1003fc:	e5c32000 	strb	r2, [r3]

    scheduler_init();                 /* Inicializa el kernel */
 c100400:	ebffff5c 	bl	c100178 <scheduler_init>

    create_task( Task2, 5 );          /* Crea las tareas de la aplicación... */
 c100404:	e59f009c 	ldr	r0, [pc, #156]	; c1004a8 <main+0x120>
 c100408:	e3a01005 	mov	r1, #5
 c10040c:	ebffff20 	bl	c100094 <create_task>
    create_task( Task7, 5 );          /* ... el kernel asigna la prioridad según orden de creación: Task2 > Task5 > Task6 > ... */
 c100410:	e59f0094 	ldr	r0, [pc, #148]	; c1004ac <main+0x124>
 c100414:	e3a01005 	mov	r1, #5
 c100418:	ebffff1d 	bl	c100094 <create_task>
    create_task( Task5, 10 );         /* ... las tareas más frecuentes tienen mayor prioridad (criterio Rate-Monotonic-Scheduling) */
 c10041c:	e59f008c 	ldr	r0, [pc, #140]	; c1004b0 <main+0x128>
 c100420:	e3a0100a 	mov	r1, #10
 c100424:	ebffff1a 	bl	c100094 <create_task>
    create_task( Task6, 10 );
 c100428:	e59f0084 	ldr	r0, [pc, #132]	; c1004b4 <main+0x12c>
 c10042c:	e3a0100a 	mov	r1, #10
 c100430:	ebffff17 	bl	c100094 <create_task>
    create_task( Task8, 10 ); // Task añadido
 c100434:	e59f007c 	ldr	r0, [pc, #124]	; c1004b8 <main+0x130>
 c100438:	e3a0100a 	mov	r1, #10
 c10043c:	ebffff14 	bl	c100094 <create_task>
    create_task( Task1, 50 );
 c100440:	e59f0074 	ldr	r0, [pc, #116]	; c1004bc <main+0x134>
 c100444:	e3a01032 	mov	r1, #50	; 0x32
 c100448:	ebffff11 	bl	c100094 <create_task>
    create_task( Task3, 100 );
 c10044c:	e59f006c 	ldr	r0, [pc, #108]	; c1004c0 <main+0x138>
 c100450:	e3a01064 	mov	r1, #100	; 0x64
 c100454:	ebffff0e 	bl	c100094 <create_task>
    create_task( Task9, 100 ); // Task añadido
 c100458:	e59f0064 	ldr	r0, [pc, #100]	; c1004c4 <main+0x13c>
 c10045c:	e3a01064 	mov	r1, #100	; 0x64
 c100460:	ebffff0b 	bl	c100094 <create_task>
    create_task( Task4, 1000 );
 c100464:	e59f005c 	ldr	r0, [pc, #92]	; c1004c8 <main+0x140>
 c100468:	e3a01ffa 	mov	r1, #1000	; 0x3e8
 c10046c:	ebffff08 	bl	c100094 <create_task>

    timer0_open_tick( scheduler, TICKS_PER_SEC );  /* Instala scheduler como RTI del timer0  */
 c100470:	e59f0054 	ldr	r0, [pc, #84]	; c1004cc <main+0x144>
 c100474:	e3a01064 	mov	r1, #100	; 0x64
 c100478:	eb001048 	bl	c1045a0 <timer0_open_tick>
    pbs_open( isr_pb );                            /* Instala isr_pb como RTI por presión de pulsadores  */
 c10047c:	e59f004c 	ldr	r0, [pc, #76]	; c1004d0 <main+0x148>
 c100480:	eb0008a4 	bl	c102718 <pbs_open>

    while( 1 )
    {
        sleep();                /* Entra en estado IDLE, sale por interrupción */
 c100484:	eb000e14 	bl	c103cdc <sleep>
        dispacher();            /* Las tareas preparadas se ejecutan en esta hebra (background) en orden de prioridad */
 c100488:	ebffff97 	bl	c1002ec <dispacher>
    }
 c10048c:	eafffffc 	b	c100484 <main+0xfc>
 c100490:	0c105a0c 	.word	0x0c105a0c
 c100494:	0c105a44 	.word	0x0c105a44
 c100498:	0c1072b1 	.word	0x0c1072b1
 c10049c:	0c1072b3 	.word	0x0c1072b3
 c1004a0:	0c1072b5 	.word	0x0c1072b5
 c1004a4:	0c1072b4 	.word	0x0c1072b4
 c1004a8:	0c10053c 	.word	0x0c10053c
 c1004ac:	0c1008b0 	.word	0x0c1008b0
 c1004b0:	0c1007a0 	.word	0x0c1007a0
 c1004b4:	0c100834 	.word	0x0c100834
 c1004b8:	0c100928 	.word	0x0c100928
 c1004bc:	0c1004d4 	.word	0x0c1004d4
 c1004c0:	0c100668 	.word	0x0c100668
 c1004c4:	0c1009dc 	.word	0x0c1009dc
 c1004c8:	0c10070c 	.word	0x0c10070c
 c1004cc:	0c1001c0 	.word	0x0c1001c0
 c1004d0:	0c100a60 	.word	0x0c100a60

0c1004d4 <Task1>:
}

/*******************************************************************/

void Task1( void )  /* Cada 0,5 segundos (50 ticks) alterna el led que se enciende */
{
 c1004d4:	e1a0c00d 	mov	ip, sp
 c1004d8:	e92dd800 	push	{fp, ip, lr, pc}
 c1004dc:	e24cb004 	sub	fp, ip, #4
    static boolean init = TRUE;

    if( init )
 c1004e0:	e59f304c 	ldr	r3, [pc, #76]	; c100534 <Task1+0x60>
 c1004e4:	e5d33000 	ldrb	r3, [r3]
 c1004e8:	e3530000 	cmp	r3, #0
 c1004ec:	0a000009 	beq	c100518 <Task1+0x44>
    {
        init = FALSE;
 c1004f0:	e59f303c 	ldr	r3, [pc, #60]	; c100534 <Task1+0x60>
 c1004f4:	e3a02000 	mov	r2, #0
 c1004f8:	e5c32000 	strb	r2, [r3]
        uart0_puts( " Task 1: iniciada.\n" );  /* Muestra un mensaje inicial en la UART0 (no es necesario semáforo) */
 c1004fc:	e59f0034 	ldr	r0, [pc, #52]	; c100538 <Task1+0x64>
 c100500:	eb00115e 	bl	c104a80 <uart0_puts>
        led_on( LEFT_LED );
 c100504:	e3a00001 	mov	r0, #1
 c100508:	eb000761 	bl	c102294 <led_on>
        led_off( RIGHT_LED );
 c10050c:	e3a00002 	mov	r0, #2
 c100510:	eb00077a 	bl	c102300 <led_off>
 c100514:	ea000003 	b	c100528 <Task1+0x54>
    }
    else
    {
        led_toggle( LEFT_LED );
 c100518:	e3a00001 	mov	r0, #1
 c10051c:	eb000792 	bl	c10236c <led_toggle>
        led_toggle( RIGHT_LED );
 c100520:	e3a00002 	mov	r0, #2
 c100524:	eb000790 	bl	c10236c <led_toggle>
    }
}
 c100528:	e24bd00c 	sub	sp, fp, #12
 c10052c:	e89d6800 	ldm	sp, {fp, sp, lr}
 c100530:	e12fff1e 	bx	lr
 c100534:	0c1071f8 	.word	0x0c1071f8
 c100538:	0c105a7c 	.word	0x0c105a7c

0c10053c <Task2>:

void Task2( void )  /* Cada 50 ms (5 ticks) muestrea el keypad y envía el scancode a otras tareas */
{
 c10053c:	e1a0c00d 	mov	ip, sp
 c100540:	e92dd800 	push	{fp, ip, lr, pc}
 c100544:	e24cb004 	sub	fp, ip, #4
    static boolean init = TRUE;
    static enum { wait_keydown, scan, wait_keyup } state;

    if( init )
 c100548:	e59f30fc 	ldr	r3, [pc, #252]	; c10064c <Task2+0x110>
 c10054c:	e5d33000 	ldrb	r3, [r3]
 c100550:	e3530000 	cmp	r3, #0
 c100554:	0a000008 	beq	c10057c <Task2+0x40>
    {
        init  = FALSE;
 c100558:	e59f30ec 	ldr	r3, [pc, #236]	; c10064c <Task2+0x110>
 c10055c:	e3a02000 	mov	r2, #0
 c100560:	e5c32000 	strb	r2, [r3]
        uart0_puts( " Task 2: iniciada.\n" );  /* Muestra un mensaje inicial en la UART0 (no es necesario semáforo) */
 c100564:	e59f00e4 	ldr	r0, [pc, #228]	; c100650 <Task2+0x114>
 c100568:	eb001144 	bl	c104a80 <uart0_puts>
        state = wait_keydown;
 c10056c:	e59f30e0 	ldr	r3, [pc, #224]	; c100654 <Task2+0x118>
 c100570:	e3a02000 	mov	r2, #0
 c100574:	e5c32000 	strb	r2, [r3]
 c100578:	ea000030 	b	c100640 <Task2+0x104>
    }
    else switch( state )
 c10057c:	e59f30d0 	ldr	r3, [pc, #208]	; c100654 <Task2+0x118>
 c100580:	e5d33000 	ldrb	r3, [r3]
 c100584:	e3530001 	cmp	r3, #1
 c100588:	0a00000b 	beq	c1005bc <Task2+0x80>
 c10058c:	e3530002 	cmp	r3, #2
 c100590:	0a00001f 	beq	c100614 <Task2+0xd8>
 c100594:	e3530000 	cmp	r3, #0
 c100598:	1a000028 	bne	c100640 <Task2+0x104>
    {
        case wait_keydown:
            if( keypad_pressed() )
 c10059c:	eb0001cc 	bl	c100cd4 <keypad_pressed>
 c1005a0:	e1a03000 	mov	r3, r0
 c1005a4:	e3530000 	cmp	r3, #0
 c1005a8:	0a000021 	beq	c100634 <Task2+0xf8>
                state = scan;
 c1005ac:	e59f30a0 	ldr	r3, [pc, #160]	; c100654 <Task2+0x118>
 c1005b0:	e3a02001 	mov	r2, #1
 c1005b4:	e5c32000 	strb	r2, [r3]
            break;
 c1005b8:	ea000020 	b	c100640 <Task2+0x104>
        case scan:
            scancode = keypad_scan();
 c1005bc:	eb00013b 	bl	c100ab0 <keypad_scan>
 c1005c0:	e1a03000 	mov	r3, r0
 c1005c4:	e1a02003 	mov	r2, r3
 c1005c8:	e59f3088 	ldr	r3, [pc, #136]	; c100658 <Task2+0x11c>
 c1005cc:	e5c32000 	strb	r2, [r3]
            if( scancode != KEYPAD_FAILURE )
 c1005d0:	e59f3080 	ldr	r3, [pc, #128]	; c100658 <Task2+0x11c>
 c1005d4:	e5d33000 	ldrb	r3, [r3]
 c1005d8:	e35300ff 	cmp	r3, #255	; 0xff
 c1005dc:	0a000008 	beq	c100604 <Task2+0xc8>
            {
                flagTask5 = TRUE;
 c1005e0:	e59f3074 	ldr	r3, [pc, #116]	; c10065c <Task2+0x120>
 c1005e4:	e3a02001 	mov	r2, #1
 c1005e8:	e5c32000 	strb	r2, [r3]
                flagTask6 = TRUE;
 c1005ec:	e59f306c 	ldr	r3, [pc, #108]	; c100660 <Task2+0x124>
 c1005f0:	e3a02001 	mov	r2, #1
 c1005f4:	e5c32000 	strb	r2, [r3]
                flagTask8 = TRUE;
 c1005f8:	e59f3064 	ldr	r3, [pc, #100]	; c100664 <Task2+0x128>
 c1005fc:	e3a02001 	mov	r2, #1
 c100600:	e5c32000 	strb	r2, [r3]
            }
            state = wait_keyup;
 c100604:	e59f3048 	ldr	r3, [pc, #72]	; c100654 <Task2+0x118>
 c100608:	e3a02002 	mov	r2, #2
 c10060c:	e5c32000 	strb	r2, [r3]
            break;
 c100610:	ea00000a 	b	c100640 <Task2+0x104>
        case wait_keyup:
            if( !keypad_pressed() )
 c100614:	eb0001ae 	bl	c100cd4 <keypad_pressed>
 c100618:	e1a03000 	mov	r3, r0
 c10061c:	e3530000 	cmp	r3, #0
 c100620:	1a000005 	bne	c10063c <Task2+0x100>
                state = wait_keydown;
 c100624:	e59f3028 	ldr	r3, [pc, #40]	; c100654 <Task2+0x118>
 c100628:	e3a02000 	mov	r2, #0
 c10062c:	e5c32000 	strb	r2, [r3]
            break;
 c100630:	ea000002 	b	c100640 <Task2+0x104>
    else switch( state )
    {
        case wait_keydown:
            if( keypad_pressed() )
                state = scan;
            break;
 c100634:	e1a00000 	nop			; (mov r0, r0)
 c100638:	ea000000 	b	c100640 <Task2+0x104>
            state = wait_keyup;
            break;
        case wait_keyup:
            if( !keypad_pressed() )
                state = wait_keydown;
            break;
 c10063c:	e1a00000 	nop			; (mov r0, r0)
    }
}
 c100640:	e24bd00c 	sub	sp, fp, #12
 c100644:	e89d6800 	ldm	sp, {fp, sp, lr}
 c100648:	e12fff1e 	bx	lr
 c10064c:	0c1071f7 	.word	0x0c1071f7
 c100650:	0c105a90 	.word	0x0c105a90
 c100654:	0c1072a0 	.word	0x0c1072a0
 c100658:	0c1072b0 	.word	0x0c1072b0
 c10065c:	0c1072b1 	.word	0x0c1072b1
 c100660:	0c1072b3 	.word	0x0c1072b3
 c100664:	0c1072b5 	.word	0x0c1072b5

0c100668 <Task3>:

void Task3( void  )  /* Cada segundo (100 ticks) muestra por la UART0 la hora del RTC */
{
 c100668:	e1a0c00d 	mov	ip, sp
 c10066c:	e92dd800 	push	{fp, ip, lr, pc}
 c100670:	e24cb004 	sub	fp, ip, #4
 c100674:	e24dd008 	sub	sp, sp, #8
    static boolean init = TRUE;
    rtc_time_t rtc_time;

    if( init )
 c100678:	e59f307c 	ldr	r3, [pc, #124]	; c1006fc <Task3+0x94>
 c10067c:	e5d33000 	ldrb	r3, [r3]
 c100680:	e3530000 	cmp	r3, #0
 c100684:	0a000005 	beq	c1006a0 <Task3+0x38>
    {
        init = FALSE;
 c100688:	e59f306c 	ldr	r3, [pc, #108]	; c1006fc <Task3+0x94>
 c10068c:	e3a02000 	mov	r2, #0
 c100690:	e5c32000 	strb	r2, [r3]
        uart0_puts( " Task 3: iniciada.\n" );  /* Muestra un mensaje inicial en la UART0 (no es necesario semáforo) */
 c100694:	e59f0064 	ldr	r0, [pc, #100]	; c100700 <Task3+0x98>
 c100698:	eb0010f8 	bl	c104a80 <uart0_puts>
 c10069c:	ea000013 	b	c1006f0 <Task3+0x88>
    }
    else
    {
        rtc_gettime( &rtc_time );
 c1006a0:	e24b3014 	sub	r3, fp, #20
 c1006a4:	e1a00003 	mov	r0, r3
 c1006a8:	eb000942 	bl	c102bb8 <rtc_gettime>
        uart0_puts( "  (Task 3) Hora: " );
 c1006ac:	e59f0050 	ldr	r0, [pc, #80]	; c100704 <Task3+0x9c>
 c1006b0:	eb0010f2 	bl	c104a80 <uart0_puts>
        uart0_putint( rtc_time.hour );
 c1006b4:	e55b3012 	ldrb	r3, [fp, #-18]	; 0xffffffee
 c1006b8:	e1a00003 	mov	r0, r3
 c1006bc:	eb001103 	bl	c104ad0 <uart0_putint>
        uart0_putchar( ':' );
 c1006c0:	e3a0003a 	mov	r0, #58	; 0x3a
 c1006c4:	eb0010c7 	bl	c1049e8 <uart0_putchar>
        uart0_putint( rtc_time.min );
 c1006c8:	e55b3013 	ldrb	r3, [fp, #-19]	; 0xffffffed
 c1006cc:	e1a00003 	mov	r0, r3
 c1006d0:	eb0010fe 	bl	c104ad0 <uart0_putint>
        uart0_putchar( ':' );
 c1006d4:	e3a0003a 	mov	r0, #58	; 0x3a
 c1006d8:	eb0010c2 	bl	c1049e8 <uart0_putchar>
        uart0_putint( rtc_time.sec );
 c1006dc:	e55b3014 	ldrb	r3, [fp, #-20]	; 0xffffffec
 c1006e0:	e1a00003 	mov	r0, r3
 c1006e4:	eb0010f9 	bl	c104ad0 <uart0_putint>
        uart0_puts( "\n" );
 c1006e8:	e59f0018 	ldr	r0, [pc, #24]	; c100708 <Task3+0xa0>
 c1006ec:	eb0010e3 	bl	c104a80 <uart0_puts>
    }
}
 c1006f0:	e24bd00c 	sub	sp, fp, #12
 c1006f4:	e89d6800 	ldm	sp, {fp, sp, lr}
 c1006f8:	e12fff1e 	bx	lr
 c1006fc:	0c1071f6 	.word	0x0c1071f6
 c100700:	0c105aa4 	.word	0x0c105aa4
 c100704:	0c105ab8 	.word	0x0c105ab8
 c100708:	0c105acc 	.word	0x0c105acc

0c10070c <Task4>:

void Task4( void )  /* Cada 10 segundos (1000 ticks) muestra por la UART0 los ticks transcurridos */
{
 c10070c:	e1a0c00d 	mov	ip, sp
 c100710:	e92dd800 	push	{fp, ip, lr, pc}
 c100714:	e24cb004 	sub	fp, ip, #4
    static boolean init = TRUE;
    static uint32 ticks;

    if( init )
 c100718:	e59f306c 	ldr	r3, [pc, #108]	; c10078c <Task4+0x80>
 c10071c:	e5d33000 	ldrb	r3, [r3]
 c100720:	e3530000 	cmp	r3, #0
 c100724:	0a000008 	beq	c10074c <Task4+0x40>
    {
        init = FALSE;
 c100728:	e59f305c 	ldr	r3, [pc, #92]	; c10078c <Task4+0x80>
 c10072c:	e3a02000 	mov	r2, #0
 c100730:	e5c32000 	strb	r2, [r3]
        uart0_puts( " Task 4: iniciada.\n" );  /* Muestra un mensaje inicial en la UART0 (no es necesario semáforo) */
 c100734:	e59f0054 	ldr	r0, [pc, #84]	; c100790 <Task4+0x84>
 c100738:	eb0010d0 	bl	c104a80 <uart0_puts>
        ticks = 0;
 c10073c:	e59f3050 	ldr	r3, [pc, #80]	; c100794 <Task4+0x88>
 c100740:	e3a02000 	mov	r2, #0
 c100744:	e5832000 	str	r2, [r3]
 c100748:	ea00000c 	b	c100780 <Task4+0x74>
    }
    else
    {
        ticks += TICKS_PER_SEC * 10;
 c10074c:	e59f3040 	ldr	r3, [pc, #64]	; c100794 <Task4+0x88>
 c100750:	e5933000 	ldr	r3, [r3]
 c100754:	e2832ffa 	add	r2, r3, #1000	; 0x3e8
 c100758:	e59f3034 	ldr	r3, [pc, #52]	; c100794 <Task4+0x88>
 c10075c:	e5832000 	str	r2, [r3]
        uart0_puts( "  (Task 4) Ticks: " );
 c100760:	e59f0030 	ldr	r0, [pc, #48]	; c100798 <Task4+0x8c>
 c100764:	eb0010c5 	bl	c104a80 <uart0_puts>
        uart0_putint( ticks );
 c100768:	e59f3024 	ldr	r3, [pc, #36]	; c100794 <Task4+0x88>
 c10076c:	e5933000 	ldr	r3, [r3]
 c100770:	e1a00003 	mov	r0, r3
 c100774:	eb0010d5 	bl	c104ad0 <uart0_putint>
        uart0_puts( "\n" );
 c100778:	e59f001c 	ldr	r0, [pc, #28]	; c10079c <Task4+0x90>
 c10077c:	eb0010bf 	bl	c104a80 <uart0_puts>
    }
}
 c100780:	e24bd00c 	sub	sp, fp, #12
 c100784:	e89d6800 	ldm	sp, {fp, sp, lr}
 c100788:	e12fff1e 	bx	lr
 c10078c:	0c1071f5 	.word	0x0c1071f5
 c100790:	0c105ad0 	.word	0x0c105ad0
 c100794:	0c10729c 	.word	0x0c10729c
 c100798:	0c105ae4 	.word	0x0c105ae4
 c10079c:	0c105acc 	.word	0x0c105acc

0c1007a0 <Task5>:

void Task5( void )  /* Cada vez que reciba un scancode lo muestra por la UART0 */
{
 c1007a0:	e1a0c00d 	mov	ip, sp
 c1007a4:	e92dd800 	push	{fp, ip, lr, pc}
 c1007a8:	e24cb004 	sub	fp, ip, #4
    static boolean init = TRUE;

    if( init )
 c1007ac:	e59f3068 	ldr	r3, [pc, #104]	; c10081c <Task5+0x7c>
 c1007b0:	e5d33000 	ldrb	r3, [r3]
 c1007b4:	e3530000 	cmp	r3, #0
 c1007b8:	0a000005 	beq	c1007d4 <Task5+0x34>
    {
        init = FALSE;
 c1007bc:	e59f3058 	ldr	r3, [pc, #88]	; c10081c <Task5+0x7c>
 c1007c0:	e3a02000 	mov	r2, #0
 c1007c4:	e5c32000 	strb	r2, [r3]
        uart0_puts( " Task 5: iniciada.\n" );  /* Muestra un mensaje inicial en la UART0 (no es necesario semáforo) */
 c1007c8:	e59f0050 	ldr	r0, [pc, #80]	; c100820 <Task5+0x80>
 c1007cc:	eb0010ab 	bl	c104a80 <uart0_puts>
 c1007d0:	ea00000e 	b	c100810 <Task5+0x70>
    }
    else if( flagTask5 )
 c1007d4:	e59f3048 	ldr	r3, [pc, #72]	; c100824 <Task5+0x84>
 c1007d8:	e5d33000 	ldrb	r3, [r3]
 c1007dc:	e3530000 	cmp	r3, #0
 c1007e0:	0a00000a 	beq	c100810 <Task5+0x70>
    {
        flagTask5 = FALSE;
 c1007e4:	e59f3038 	ldr	r3, [pc, #56]	; c100824 <Task5+0x84>
 c1007e8:	e3a02000 	mov	r2, #0
 c1007ec:	e5c32000 	strb	r2, [r3]
        uart0_puts( "  (Task 5) Tecla pulsada: " );
 c1007f0:	e59f0030 	ldr	r0, [pc, #48]	; c100828 <Task5+0x88>
 c1007f4:	eb0010a1 	bl	c104a80 <uart0_puts>
        uart0_puthex( scancode );
 c1007f8:	e59f302c 	ldr	r3, [pc, #44]	; c10082c <Task5+0x8c>
 c1007fc:	e5d33000 	ldrb	r3, [r3]
 c100800:	e1a00003 	mov	r0, r3
 c100804:	eb0010f4 	bl	c104bdc <uart0_puthex>
        uart0_puts( "\n" );
 c100808:	e59f0020 	ldr	r0, [pc, #32]	; c100830 <Task5+0x90>
 c10080c:	eb00109b 	bl	c104a80 <uart0_puts>
    }
}
 c100810:	e24bd00c 	sub	sp, fp, #12
 c100814:	e89d6800 	ldm	sp, {fp, sp, lr}
 c100818:	e12fff1e 	bx	lr
 c10081c:	0c1071f4 	.word	0x0c1071f4
 c100820:	0c105af8 	.word	0x0c105af8
 c100824:	0c1072b1 	.word	0x0c1072b1
 c100828:	0c105b0c 	.word	0x0c105b0c
 c10082c:	0c1072b0 	.word	0x0c1072b0
 c100830:	0c105acc 	.word	0x0c105acc

0c100834 <Task6>:

void Task6( void )  /* Cada vez que reciba un scancode lo muestra por los 7 segmentos */
{
 c100834:	e1a0c00d 	mov	ip, sp
 c100838:	e92dd800 	push	{fp, ip, lr, pc}
 c10083c:	e24cb004 	sub	fp, ip, #4
    static boolean init = TRUE;

    if( init )
 c100840:	e59f3058 	ldr	r3, [pc, #88]	; c1008a0 <Task6+0x6c>
 c100844:	e5d33000 	ldrb	r3, [r3]
 c100848:	e3530000 	cmp	r3, #0
 c10084c:	0a000005 	beq	c100868 <Task6+0x34>
    {
        init = FALSE;
 c100850:	e59f3048 	ldr	r3, [pc, #72]	; c1008a0 <Task6+0x6c>
 c100854:	e3a02000 	mov	r2, #0
 c100858:	e5c32000 	strb	r2, [r3]
        uart0_puts( " Task 6: iniciada.\n" );  /* Muestra un mensaje inicial en la UART0 (no es necesario semáforo) */
 c10085c:	e59f0040 	ldr	r0, [pc, #64]	; c1008a4 <Task6+0x70>
 c100860:	eb001086 	bl	c104a80 <uart0_puts>
 c100864:	ea00000a 	b	c100894 <Task6+0x60>
    }
    else if( flagTask6 )
 c100868:	e59f3038 	ldr	r3, [pc, #56]	; c1008a8 <Task6+0x74>
 c10086c:	e5d33000 	ldrb	r3, [r3]
 c100870:	e3530000 	cmp	r3, #0
 c100874:	0a000006 	beq	c100894 <Task6+0x60>
    {
        flagTask6 = FALSE;
 c100878:	e59f3028 	ldr	r3, [pc, #40]	; c1008a8 <Task6+0x74>
 c10087c:	e3a02000 	mov	r2, #0
 c100880:	e5c32000 	strb	r2, [r3]
        segs_putchar( scancode );
 c100884:	e59f3020 	ldr	r3, [pc, #32]	; c1008ac <Task6+0x78>
 c100888:	e5d33000 	ldrb	r3, [r3]
 c10088c:	e1a00003 	mov	r0, r3
 c100890:	eb000a2b 	bl	c103144 <segs_putchar>
    }
}
 c100894:	e24bd00c 	sub	sp, fp, #12
 c100898:	e89d6800 	ldm	sp, {fp, sp, lr}
 c10089c:	e12fff1e 	bx	lr
 c1008a0:	0c1071f3 	.word	0x0c1071f3
 c1008a4:	0c105b28 	.word	0x0c105b28
 c1008a8:	0c1072b3 	.word	0x0c1072b3
 c1008ac:	0c1072b0 	.word	0x0c1072b0

0c1008b0 <Task7>:

void Task7( void )  /* Cada vez que se presione un pulsador lo avisa por la UART0 */
{
 c1008b0:	e1a0c00d 	mov	ip, sp
 c1008b4:	e92dd800 	push	{fp, ip, lr, pc}
 c1008b8:	e24cb004 	sub	fp, ip, #4
    static boolean init = TRUE;

    if( init )
 c1008bc:	e59f3054 	ldr	r3, [pc, #84]	; c100918 <Task7+0x68>
 c1008c0:	e5d33000 	ldrb	r3, [r3]
 c1008c4:	e3530000 	cmp	r3, #0
 c1008c8:	0a000005 	beq	c1008e4 <Task7+0x34>
    {
        init = FALSE;
 c1008cc:	e59f3044 	ldr	r3, [pc, #68]	; c100918 <Task7+0x68>
 c1008d0:	e3a02000 	mov	r2, #0
 c1008d4:	e5c32000 	strb	r2, [r3]
        uart0_puts( " Task 7: iniciada.\n" );  /* Muestra un mensaje inicial en la UART0 (no es necesario semáforo) */
 c1008d8:	e59f003c 	ldr	r0, [pc, #60]	; c10091c <Task7+0x6c>
 c1008dc:	eb001067 	bl	c104a80 <uart0_puts>
 c1008e0:	ea000009 	b	c10090c <Task7+0x5c>
    }
    else if( flagPb )
 c1008e4:	e59f3034 	ldr	r3, [pc, #52]	; c100920 <Task7+0x70>
 c1008e8:	e5d33000 	ldrb	r3, [r3]
 c1008ec:	e20330ff 	and	r3, r3, #255	; 0xff
 c1008f0:	e3530000 	cmp	r3, #0
 c1008f4:	0a000004 	beq	c10090c <Task7+0x5c>
    {   
        flagPb = FALSE;
 c1008f8:	e59f3020 	ldr	r3, [pc, #32]	; c100920 <Task7+0x70>
 c1008fc:	e3a02000 	mov	r2, #0
 c100900:	e5c32000 	strb	r2, [r3]
        uart0_puts( "  (Task 7) Se ha pulsado algún pushbutton...\n" );
 c100904:	e59f0018 	ldr	r0, [pc, #24]	; c100924 <Task7+0x74>
 c100908:	eb00105c 	bl	c104a80 <uart0_puts>
    }
}
 c10090c:	e24bd00c 	sub	sp, fp, #12
 c100910:	e89d6800 	ldm	sp, {fp, sp, lr}
 c100914:	e12fff1e 	bx	lr
 c100918:	0c1071f2 	.word	0x0c1071f2
 c10091c:	0c105b3c 	.word	0x0c105b3c
 c100920:	0c1072b4 	.word	0x0c1072b4
 c100924:	0c105b50 	.word	0x0c105b50

0c100928 <Task8>:

void Task8(void){
 c100928:	e1a0c00d 	mov	ip, sp
 c10092c:	e92dd800 	push	{fp, ip, lr, pc}
 c100930:	e24cb004 	sub	fp, ip, #4
    static boolean init = TRUE;

    if( init )
 c100934:	e59f3088 	ldr	r3, [pc, #136]	; c1009c4 <Task8+0x9c>
 c100938:	e5d33000 	ldrb	r3, [r3]
 c10093c:	e3530000 	cmp	r3, #0
 c100940:	0a000005 	beq	c10095c <Task8+0x34>
    {
        init = FALSE;
 c100944:	e59f3078 	ldr	r3, [pc, #120]	; c1009c4 <Task8+0x9c>
 c100948:	e3a02000 	mov	r2, #0
 c10094c:	e5c32000 	strb	r2, [r3]
        uart0_puts( " Task 8: iniciada.\n" );  /* Muestra un mensaje inicial en la UART0 (no es necesario semáforo) */
 c100950:	e59f0070 	ldr	r0, [pc, #112]	; c1009c8 <Task8+0xa0>
 c100954:	eb001049 	bl	c104a80 <uart0_puts>
 c100958:	ea000016 	b	c1009b8 <Task8+0x90>
    }
    else if (flagTask8)
 c10095c:	e59f3068 	ldr	r3, [pc, #104]	; c1009cc <Task8+0xa4>
 c100960:	e5d33000 	ldrb	r3, [r3]
 c100964:	e3530000 	cmp	r3, #0
 c100968:	0a000012 	beq	c1009b8 <Task8+0x90>
    {
    	flagTask8 = FALSE;
 c10096c:	e59f3058 	ldr	r3, [pc, #88]	; c1009cc <Task8+0xa4>
 c100970:	e3a02000 	mov	r2, #0
 c100974:	e5c32000 	strb	r2, [r3]
    	lcd_puts(15, 16, BLACK, "- La tecla 0x" );
 c100978:	e3a0000f 	mov	r0, #15
 c10097c:	e3a01010 	mov	r1, #16
 c100980:	e3a0200f 	mov	r2, #15
 c100984:	e59f3044 	ldr	r3, [pc, #68]	; c1009d0 <Task8+0xa8>
 c100988:	eb00036e 	bl	c101748 <lcd_puts>
    	lcd_puthex(120, 16, BLACK, scancode );
 c10098c:	e59f3040 	ldr	r3, [pc, #64]	; c1009d4 <Task8+0xac>
 c100990:	e5d33000 	ldrb	r3, [r3]
 c100994:	e3a00078 	mov	r0, #120	; 0x78
 c100998:	e3a01010 	mov	r1, #16
 c10099c:	e3a0200f 	mov	r2, #15
 c1009a0:	eb0003d2 	bl	c1018f0 <lcd_puthex>
    	lcd_puts(129, 16, BLACK, " ha sido presionada\n" );
 c1009a4:	e3a00081 	mov	r0, #129	; 0x81
 c1009a8:	e3a01010 	mov	r1, #16
 c1009ac:	e3a0200f 	mov	r2, #15
 c1009b0:	e59f3020 	ldr	r3, [pc, #32]	; c1009d8 <Task8+0xb0>
 c1009b4:	eb000363 	bl	c101748 <lcd_puts>
    }
}
 c1009b8:	e24bd00c 	sub	sp, fp, #12
 c1009bc:	e89d6800 	ldm	sp, {fp, sp, lr}
 c1009c0:	e12fff1e 	bx	lr
 c1009c4:	0c1071f1 	.word	0x0c1071f1
 c1009c8:	0c105b80 	.word	0x0c105b80
 c1009cc:	0c1072b5 	.word	0x0c1072b5
 c1009d0:	0c105b94 	.word	0x0c105b94
 c1009d4:	0c1072b0 	.word	0x0c1072b0
 c1009d8:	0c105ba4 	.word	0x0c105ba4

0c1009dc <Task9>:

void Task9(void){
 c1009dc:	e1a0c00d 	mov	ip, sp
 c1009e0:	e92dd800 	push	{fp, ip, lr, pc}
 c1009e4:	e24cb004 	sub	fp, ip, #4
 c1009e8:	e24dd008 	sub	sp, sp, #8
    static boolean init = TRUE;
    rtc_time_t rtc_time;

    if( init )
 c1009ec:	e59f3060 	ldr	r3, [pc, #96]	; c100a54 <Task9+0x78>
 c1009f0:	e5d33000 	ldrb	r3, [r3]
 c1009f4:	e3530000 	cmp	r3, #0
 c1009f8:	0a000005 	beq	c100a14 <Task9+0x38>
    {
        init = FALSE;
 c1009fc:	e59f3050 	ldr	r3, [pc, #80]	; c100a54 <Task9+0x78>
 c100a00:	e3a02000 	mov	r2, #0
 c100a04:	e5c32000 	strb	r2, [r3]
        uart0_puts( " Task 9: iniciada.\n" );  /* Muestra un mensaje inicial en la UART0 (no es necesario semáforo) */
 c100a08:	e59f0048 	ldr	r0, [pc, #72]	; c100a58 <Task9+0x7c>
 c100a0c:	eb00101b 	bl	c104a80 <uart0_puts>
 c100a10:	ea00000c 	b	c100a48 <Task9+0x6c>
    }
    else
    {
        rtc_gettime( &rtc_time );
 c100a14:	e24b3014 	sub	r3, fp, #20
 c100a18:	e1a00003 	mov	r0, r3
 c100a1c:	eb000865 	bl	c102bb8 <rtc_gettime>
        lcd_puts( 20, 32, BLACK, "(Task 9) Tiempo: " );
 c100a20:	e3a00014 	mov	r0, #20
 c100a24:	e3a01020 	mov	r1, #32
 c100a28:	e3a0200f 	mov	r2, #15
 c100a2c:	e59f3028 	ldr	r3, [pc, #40]	; c100a5c <Task9+0x80>
 c100a30:	eb000344 	bl	c101748 <lcd_puts>
        lcd_putint(20, 48, BLACK, rtc_time.sec );
 c100a34:	e55b3014 	ldrb	r3, [fp, #-20]	; 0xffffffec
 c100a38:	e3a00014 	mov	r0, #20
 c100a3c:	e3a01030 	mov	r1, #48	; 0x30
 c100a40:	e3a0200f 	mov	r2, #15
 c100a44:	eb00035c 	bl	c1017bc <lcd_putint>
    }
}
 c100a48:	e24bd00c 	sub	sp, fp, #12
 c100a4c:	e89d6800 	ldm	sp, {fp, sp, lr}
 c100a50:	e12fff1e 	bx	lr
 c100a54:	0c1071f0 	.word	0x0c1071f0
 c100a58:	0c105bbc 	.word	0x0c105bbc
 c100a5c:	0c105bd0 	.word	0x0c105bd0

0c100a60 <isr_pb>:

/*******************************************************************/


void isr_pb( void )
{
 c100a60:	e52dc004 	push	{ip}		; (str ip, [sp, #-4]!)
 c100a64:	e1a0c00d 	mov	ip, sp
 c100a68:	e92dd80c 	push	{r2, r3, fp, ip, lr, pc}
 c100a6c:	e24cb004 	sub	fp, ip, #4
    flagPb = TRUE;
 c100a70:	e59f302c 	ldr	r3, [pc, #44]	; c100aa4 <isr_pb+0x44>
 c100a74:	e3a02001 	mov	r2, #1
 c100a78:	e5c32000 	strb	r2, [r3]
    EXTINTPND = BIT_RIGHTPB | BIT_LEFTPB;
 c100a7c:	e59f3024 	ldr	r3, [pc, #36]	; c100aa8 <isr_pb+0x48>
 c100a80:	e3a0200c 	mov	r2, #12
 c100a84:	e5832000 	str	r2, [r3]
    I_ISPC = BIT_PB;
 c100a88:	e59f301c 	ldr	r3, [pc, #28]	; c100aac <isr_pb+0x4c>
 c100a8c:	e3a02602 	mov	r2, #2097152	; 0x200000
 c100a90:	e5832000 	str	r2, [r3]
}
 c100a94:	e24bd014 	sub	sp, fp, #20
 c100a98:	e89d680c 	ldm	sp, {r2, r3, fp, sp, lr}
 c100a9c:	e49dc004 	pop	{ip}		; (ldr ip, [sp], #4)
 c100aa0:	e25ef004 	subs	pc, lr, #4
 c100aa4:	0c1072b4 	.word	0x0c1072b4
 c100aa8:	01d20054 	.word	0x01d20054
 c100aac:	01e00024 	.word	0x01e00024

0c100ab0 <keypad_scan>:
#include <keypad.h>

extern void isr_KEYPAD_dummy( void );

uint8 keypad_scan( void )
{
 c100ab0:	e1a0c00d 	mov	ip, sp
 c100ab4:	e92dd800 	push	{fp, ip, lr, pc}
 c100ab8:	e24cb004 	sub	fp, ip, #4
 c100abc:	e24dd008 	sub	sp, sp, #8
    uint8 aux;

    aux = *( KEYPAD_ADDR + 0x1c );
 c100ac0:	e59f31fc 	ldr	r3, [pc, #508]	; c100cc4 <keypad_scan+0x214>
 c100ac4:	e5d33000 	ldrb	r3, [r3]
 c100ac8:	e54b300d 	strb	r3, [fp, #-13]
    if( (aux & 0x0f) != 0x0f )
 c100acc:	e55b300d 	ldrb	r3, [fp, #-13]
 c100ad0:	e203300f 	and	r3, r3, #15
 c100ad4:	e353000f 	cmp	r3, #15
 c100ad8:	0a000017 	beq	c100b3c <keypad_scan+0x8c>
    {
        if( (aux & 0x8) == 0 )
 c100adc:	e55b300d 	ldrb	r3, [fp, #-13]
 c100ae0:	e2033008 	and	r3, r3, #8
 c100ae4:	e3530000 	cmp	r3, #0
 c100ae8:	1a000001 	bne	c100af4 <keypad_scan+0x44>
            return KEYPAD_KEY0;
 c100aec:	e3a03000 	mov	r3, #0
 c100af0:	ea00006f 	b	c100cb4 <keypad_scan+0x204>
        else if( (aux & 0x4) == 0 )
 c100af4:	e55b300d 	ldrb	r3, [fp, #-13]
 c100af8:	e2033004 	and	r3, r3, #4
 c100afc:	e3530000 	cmp	r3, #0
 c100b00:	1a000001 	bne	c100b0c <keypad_scan+0x5c>
            return KEYPAD_KEY1;
 c100b04:	e3a03001 	mov	r3, #1
 c100b08:	ea000069 	b	c100cb4 <keypad_scan+0x204>
        else if( (aux & 0x2) == 0 )
 c100b0c:	e55b300d 	ldrb	r3, [fp, #-13]
 c100b10:	e2033002 	and	r3, r3, #2
 c100b14:	e3530000 	cmp	r3, #0
 c100b18:	1a000001 	bne	c100b24 <keypad_scan+0x74>
            return KEYPAD_KEY2;
 c100b1c:	e3a03002 	mov	r3, #2
 c100b20:	ea000063 	b	c100cb4 <keypad_scan+0x204>
        else if( (aux & 0x1) == 0 )
 c100b24:	e55b300d 	ldrb	r3, [fp, #-13]
 c100b28:	e2033001 	and	r3, r3, #1
 c100b2c:	e3530000 	cmp	r3, #0
 c100b30:	1a000001 	bne	c100b3c <keypad_scan+0x8c>
            return KEYPAD_KEY3;
 c100b34:	e3a03003 	mov	r3, #3
 c100b38:	ea00005d 	b	c100cb4 <keypad_scan+0x204>
    }
	aux = *( KEYPAD_ADDR + 0x1A);
 c100b3c:	e59f3184 	ldr	r3, [pc, #388]	; c100cc8 <keypad_scan+0x218>
 c100b40:	e5d33000 	ldrb	r3, [r3]
 c100b44:	e54b300d 	strb	r3, [fp, #-13]
	if( (aux & 0x0f) != 0x0f )
 c100b48:	e55b300d 	ldrb	r3, [fp, #-13]
 c100b4c:	e203300f 	and	r3, r3, #15
 c100b50:	e353000f 	cmp	r3, #15
 c100b54:	0a000017 	beq	c100bb8 <keypad_scan+0x108>
	{
		if( (aux & 0x8) == 0 )
 c100b58:	e55b300d 	ldrb	r3, [fp, #-13]
 c100b5c:	e2033008 	and	r3, r3, #8
 c100b60:	e3530000 	cmp	r3, #0
 c100b64:	1a000001 	bne	c100b70 <keypad_scan+0xc0>
			return KEYPAD_KEY4;
 c100b68:	e3a03004 	mov	r3, #4
 c100b6c:	ea000050 	b	c100cb4 <keypad_scan+0x204>
		else if( (aux & 0x4) == 0 )
 c100b70:	e55b300d 	ldrb	r3, [fp, #-13]
 c100b74:	e2033004 	and	r3, r3, #4
 c100b78:	e3530000 	cmp	r3, #0
 c100b7c:	1a000001 	bne	c100b88 <keypad_scan+0xd8>
			return KEYPAD_KEY5;
 c100b80:	e3a03005 	mov	r3, #5
 c100b84:	ea00004a 	b	c100cb4 <keypad_scan+0x204>
		else if( (aux & 0x2) == 0 )
 c100b88:	e55b300d 	ldrb	r3, [fp, #-13]
 c100b8c:	e2033002 	and	r3, r3, #2
 c100b90:	e3530000 	cmp	r3, #0
 c100b94:	1a000001 	bne	c100ba0 <keypad_scan+0xf0>
			return KEYPAD_KEY6;
 c100b98:	e3a03006 	mov	r3, #6
 c100b9c:	ea000044 	b	c100cb4 <keypad_scan+0x204>
		else if( (aux & 0x1) == 0 )
 c100ba0:	e55b300d 	ldrb	r3, [fp, #-13]
 c100ba4:	e2033001 	and	r3, r3, #1
 c100ba8:	e3530000 	cmp	r3, #0
 c100bac:	1a000001 	bne	c100bb8 <keypad_scan+0x108>
			return KEYPAD_KEY7;
 c100bb0:	e3a03007 	mov	r3, #7
 c100bb4:	ea00003e 	b	c100cb4 <keypad_scan+0x204>
	}
	aux = *( KEYPAD_ADDR + 0x16);
 c100bb8:	e59f310c 	ldr	r3, [pc, #268]	; c100ccc <keypad_scan+0x21c>
 c100bbc:	e5d33000 	ldrb	r3, [r3]
 c100bc0:	e54b300d 	strb	r3, [fp, #-13]
		if( (aux & 0x0f) != 0x0f )
 c100bc4:	e55b300d 	ldrb	r3, [fp, #-13]
 c100bc8:	e203300f 	and	r3, r3, #15
 c100bcc:	e353000f 	cmp	r3, #15
 c100bd0:	0a000017 	beq	c100c34 <keypad_scan+0x184>
		{
			if( (aux & 0x8) == 0 )
 c100bd4:	e55b300d 	ldrb	r3, [fp, #-13]
 c100bd8:	e2033008 	and	r3, r3, #8
 c100bdc:	e3530000 	cmp	r3, #0
 c100be0:	1a000001 	bne	c100bec <keypad_scan+0x13c>
				return KEYPAD_KEY8;
 c100be4:	e3a03008 	mov	r3, #8
 c100be8:	ea000031 	b	c100cb4 <keypad_scan+0x204>
			else if( (aux & 0x4) == 0 )
 c100bec:	e55b300d 	ldrb	r3, [fp, #-13]
 c100bf0:	e2033004 	and	r3, r3, #4
 c100bf4:	e3530000 	cmp	r3, #0
 c100bf8:	1a000001 	bne	c100c04 <keypad_scan+0x154>
				return KEYPAD_KEY9;
 c100bfc:	e3a03009 	mov	r3, #9
 c100c00:	ea00002b 	b	c100cb4 <keypad_scan+0x204>
			else if( (aux & 0x2) == 0 )
 c100c04:	e55b300d 	ldrb	r3, [fp, #-13]
 c100c08:	e2033002 	and	r3, r3, #2
 c100c0c:	e3530000 	cmp	r3, #0
 c100c10:	1a000001 	bne	c100c1c <keypad_scan+0x16c>
				return KEYPAD_KEYA;
 c100c14:	e3a0300a 	mov	r3, #10
 c100c18:	ea000025 	b	c100cb4 <keypad_scan+0x204>
			else if( (aux & 0x1) == 0 )
 c100c1c:	e55b300d 	ldrb	r3, [fp, #-13]
 c100c20:	e2033001 	and	r3, r3, #1
 c100c24:	e3530000 	cmp	r3, #0
 c100c28:	1a000001 	bne	c100c34 <keypad_scan+0x184>
				return KEYPAD_KEYB;
 c100c2c:	e3a0300b 	mov	r3, #11
 c100c30:	ea00001f 	b	c100cb4 <keypad_scan+0x204>
		}
	aux = *( KEYPAD_ADDR + 0x0E);
 c100c34:	e59f3094 	ldr	r3, [pc, #148]	; c100cd0 <keypad_scan+0x220>
 c100c38:	e5d33000 	ldrb	r3, [r3]
 c100c3c:	e54b300d 	strb	r3, [fp, #-13]
		if( (aux & 0x0f) != 0x0f )
 c100c40:	e55b300d 	ldrb	r3, [fp, #-13]
 c100c44:	e203300f 	and	r3, r3, #15
 c100c48:	e353000f 	cmp	r3, #15
 c100c4c:	0a000017 	beq	c100cb0 <keypad_scan+0x200>
		{
			if( (aux & 0x8) == 0 )
 c100c50:	e55b300d 	ldrb	r3, [fp, #-13]
 c100c54:	e2033008 	and	r3, r3, #8
 c100c58:	e3530000 	cmp	r3, #0
 c100c5c:	1a000001 	bne	c100c68 <keypad_scan+0x1b8>
				return KEYPAD_KEYC;
 c100c60:	e3a0300c 	mov	r3, #12
 c100c64:	ea000012 	b	c100cb4 <keypad_scan+0x204>
			else if( (aux & 0x4) == 0 )
 c100c68:	e55b300d 	ldrb	r3, [fp, #-13]
 c100c6c:	e2033004 	and	r3, r3, #4
 c100c70:	e3530000 	cmp	r3, #0
 c100c74:	1a000001 	bne	c100c80 <keypad_scan+0x1d0>
				return KEYPAD_KEYD;
 c100c78:	e3a0300d 	mov	r3, #13
 c100c7c:	ea00000c 	b	c100cb4 <keypad_scan+0x204>
			else if( (aux & 0x2) == 0 )
 c100c80:	e55b300d 	ldrb	r3, [fp, #-13]
 c100c84:	e2033002 	and	r3, r3, #2
 c100c88:	e3530000 	cmp	r3, #0
 c100c8c:	1a000001 	bne	c100c98 <keypad_scan+0x1e8>
				return KEYPAD_KEYE;
 c100c90:	e3a0300e 	mov	r3, #14
 c100c94:	ea000006 	b	c100cb4 <keypad_scan+0x204>
			else if( (aux & 0x1) == 0 )
 c100c98:	e55b300d 	ldrb	r3, [fp, #-13]
 c100c9c:	e2033001 	and	r3, r3, #1
 c100ca0:	e3530000 	cmp	r3, #0
 c100ca4:	1a000001 	bne	c100cb0 <keypad_scan+0x200>
				return KEYPAD_KEYF;
 c100ca8:	e3a0300f 	mov	r3, #15
 c100cac:	ea000000 	b	c100cb4 <keypad_scan+0x204>
		}


    return KEYPAD_FAILURE;
 c100cb0:	e3a030ff 	mov	r3, #255	; 0xff
}
 c100cb4:	e1a00003 	mov	r0, r3
 c100cb8:	e24bd00c 	sub	sp, fp, #12
 c100cbc:	e89d6800 	ldm	sp, {fp, sp, lr}
 c100cc0:	e12fff1e 	bx	lr
 c100cc4:	0600001c 	.word	0x0600001c
 c100cc8:	0600001a 	.word	0x0600001a
 c100ccc:	06000016 	.word	0x06000016
 c100cd0:	0600000e 	.word	0x0600000e

0c100cd4 <keypad_pressed>:

uint8 keypad_pressed( void )
{
 c100cd4:	e1a0c00d 	mov	ip, sp
 c100cd8:	e92dd800 	push	{fp, ip, lr, pc}
 c100cdc:	e24cb004 	sub	fp, ip, #4
	if ((PDATG & (1 << 1)) == 0){
 c100ce0:	e59f3028 	ldr	r3, [pc, #40]	; c100d10 <keypad_pressed+0x3c>
 c100ce4:	e5933000 	ldr	r3, [r3]
 c100ce8:	e2033002 	and	r3, r3, #2
 c100cec:	e3530000 	cmp	r3, #0
 c100cf0:	1a000001 	bne	c100cfc <keypad_pressed+0x28>
		return '1';
 c100cf4:	e3a03031 	mov	r3, #49	; 0x31
 c100cf8:	ea000000 	b	c100d00 <keypad_pressed+0x2c>
	}

	return 0;
 c100cfc:	e3a03000 	mov	r3, #0
}
 c100d00:	e1a00003 	mov	r0, r3
 c100d04:	e24bd00c 	sub	sp, fp, #12
 c100d08:	e89d6800 	ldm	sp, {fp, sp, lr}
 c100d0c:	e12fff1e 	bx	lr
 c100d10:	01d20044 	.word	0x01d20044

0c100d14 <keypad_open>:

void keypad_open( void (*isr)(void) )
{
 c100d14:	e1a0c00d 	mov	ip, sp
 c100d18:	e92dd800 	push	{fp, ip, lr, pc}
 c100d1c:	e24cb004 	sub	fp, ip, #4
 c100d20:	e24dd008 	sub	sp, sp, #8
 c100d24:	e50b0010 	str	r0, [fp, #-16]
	pISR_KEYPAD = (uint32) isr;
 c100d28:	e59f3030 	ldr	r3, [pc, #48]	; c100d60 <keypad_open+0x4c>
 c100d2c:	e51b2010 	ldr	r2, [fp, #-16]
 c100d30:	e5832000 	str	r2, [r3]
	I_ISPC = BIT_KEYPAD;
 c100d34:	e59f3028 	ldr	r3, [pc, #40]	; c100d64 <keypad_open+0x50>
 c100d38:	e3a02401 	mov	r2, #16777216	; 0x1000000
 c100d3c:	e5832000 	str	r2, [r3]
	INTMSK &= ~(BIT_GLOBAL | BIT_KEYPAD);
 c100d40:	e59f3020 	ldr	r3, [pc, #32]	; c100d68 <keypad_open+0x54>
 c100d44:	e59f201c 	ldr	r2, [pc, #28]	; c100d68 <keypad_open+0x54>
 c100d48:	e5922000 	ldr	r2, [r2]
 c100d4c:	e3c22405 	bic	r2, r2, #83886080	; 0x5000000
 c100d50:	e5832000 	str	r2, [r3]
}
 c100d54:	e24bd00c 	sub	sp, fp, #12
 c100d58:	e89d6800 	ldm	sp, {fp, sp, lr}
 c100d5c:	e12fff1e 	bx	lr
 c100d60:	0c7fff80 	.word	0x0c7fff80
 c100d64:	01e00024 	.word	0x01e00024
 c100d68:	01e0000c 	.word	0x01e0000c

0c100d6c <keypad_close>:

void keypad_close( void )
{
 c100d6c:	e1a0c00d 	mov	ip, sp
 c100d70:	e92dd800 	push	{fp, ip, lr, pc}
 c100d74:	e24cb004 	sub	fp, ip, #4
    INTMSK |= BIT_KEYPAD;
 c100d78:	e59f3024 	ldr	r3, [pc, #36]	; c100da4 <keypad_close+0x38>
 c100d7c:	e59f2020 	ldr	r2, [pc, #32]	; c100da4 <keypad_close+0x38>
 c100d80:	e5922000 	ldr	r2, [r2]
 c100d84:	e3822401 	orr	r2, r2, #16777216	; 0x1000000
 c100d88:	e5832000 	str	r2, [r3]
    pISR_KEYPAD = (uint32) isr_KEYPAD_dummy;
 c100d8c:	e59f3014 	ldr	r3, [pc, #20]	; c100da8 <keypad_close+0x3c>
 c100d90:	e59f2014 	ldr	r2, [pc, #20]	; c100dac <keypad_close+0x40>
 c100d94:	e5832000 	str	r2, [r3]
}
 c100d98:	e24bd00c 	sub	sp, fp, #12
 c100d9c:	e89d6800 	ldm	sp, {fp, sp, lr}
 c100da0:	e12fff1e 	bx	lr
 c100da4:	01e0000c 	.word	0x01e0000c
 c100da8:	0c7fff80 	.word	0x0c7fff80
 c100dac:	0c103c60 	.word	0x0c103c60

0c100db0 <keypad_init>:

#if KEYPAD_IO_METHOD == POOLING


void keypad_init( void )
{
 c100db0:	e1a0c00d 	mov	ip, sp
 c100db4:	e92dd800 	push	{fp, ip, lr, pc}
 c100db8:	e24cb004 	sub	fp, ip, #4
    timers_init();
 c100dbc:	eb000c5a 	bl	c103f2c <timers_init>
	EXTINT = (EXTINT & ~(0xf << 4)) | (2 << 4);
 c100dc0:	e59f301c 	ldr	r3, [pc, #28]	; c100de4 <keypad_init+0x34>
 c100dc4:	e59f2018 	ldr	r2, [pc, #24]	; c100de4 <keypad_init+0x34>
 c100dc8:	e5922000 	ldr	r2, [r2]
 c100dcc:	e3c220f0 	bic	r2, r2, #240	; 0xf0
 c100dd0:	e3822020 	orr	r2, r2, #32
 c100dd4:	e5832000 	str	r2, [r3]
};
 c100dd8:	e24bd00c 	sub	sp, fp, #12
 c100ddc:	e89d6800 	ldm	sp, {fp, sp, lr}
 c100de0:	e12fff1e 	bx	lr
 c100de4:	01d20050 	.word	0x01d20050

0c100de8 <keypad_getchar>:

uint8 keypad_getchar( void )
{
 c100de8:	e1a0c00d 	mov	ip, sp
 c100dec:	e92dd800 	push	{fp, ip, lr, pc}
 c100df0:	e24cb004 	sub	fp, ip, #4
 c100df4:	e24dd008 	sub	sp, sp, #8
    uint8 scancode;

    while(!keypad_pressed());	// Espera a que esté a 0
 c100df8:	e1a00000 	nop			; (mov r0, r0)
 c100dfc:	ebffffb4 	bl	c100cd4 <keypad_pressed>
 c100e00:	e1a03000 	mov	r3, r0
 c100e04:	e3530000 	cmp	r3, #0
 c100e08:	0afffffb 	beq	c100dfc <keypad_getchar+0x14>
    sw_delay_ms(KEYPAD_KEYDOWN_DELAY);
 c100e0c:	e3a0001e 	mov	r0, #30
 c100e10:	eb000d27 	bl	c1042b4 <sw_delay_ms>
    scancode = keypad_scan();
 c100e14:	ebffff25 	bl	c100ab0 <keypad_scan>
 c100e18:	e1a03000 	mov	r3, r0
 c100e1c:	e54b300d 	strb	r3, [fp, #-13]

    while(keypad_pressed()); // Espera a que sea distinto de 0
 c100e20:	e1a00000 	nop			; (mov r0, r0)
 c100e24:	ebffffaa 	bl	c100cd4 <keypad_pressed>
 c100e28:	e1a03000 	mov	r3, r0
 c100e2c:	e3530000 	cmp	r3, #0
 c100e30:	1afffffb 	bne	c100e24 <keypad_getchar+0x3c>
    sw_delay_ms(KEYPAD_KEYUP_DELAY);
 c100e34:	e3a00064 	mov	r0, #100	; 0x64
 c100e38:	eb000d1d 	bl	c1042b4 <sw_delay_ms>

    return scancode;
 c100e3c:	e55b300d 	ldrb	r3, [fp, #-13]
}
 c100e40:	e1a00003 	mov	r0, r3
 c100e44:	e24bd00c 	sub	sp, fp, #12
 c100e48:	e89d6800 	ldm	sp, {fp, sp, lr}
 c100e4c:	e12fff1e 	bx	lr

0c100e50 <keypad_getchartime>:

uint8 keypad_getchartime( uint16 *ms )
{
 c100e50:	e1a0c00d 	mov	ip, sp
 c100e54:	e92dd800 	push	{fp, ip, lr, pc}
 c100e58:	e24cb004 	sub	fp, ip, #4
 c100e5c:	e24dd010 	sub	sp, sp, #16
 c100e60:	e50b0018 	str	r0, [fp, #-24]	; 0xffffffe8
    uint8 scancode;

    while(!keypad_pressed());	// Espera a que esté a 0
 c100e64:	e1a00000 	nop			; (mov r0, r0)
 c100e68:	ebffff99 	bl	c100cd4 <keypad_pressed>
 c100e6c:	e1a03000 	mov	r3, r0
 c100e70:	e3530000 	cmp	r3, #0
 c100e74:	0afffffb 	beq	c100e68 <keypad_getchartime+0x18>
    timer3_start();
 c100e78:	eb000d4a 	bl	c1043a8 <timer3_start>
    sw_delay_ms(KEYPAD_KEYDOWN_DELAY);
 c100e7c:	e3a0001e 	mov	r0, #30
 c100e80:	eb000d0b 	bl	c1042b4 <sw_delay_ms>
    scancode = keypad_scan();
 c100e84:	ebffff09 	bl	c100ab0 <keypad_scan>
 c100e88:	e1a03000 	mov	r3, r0
 c100e8c:	e54b300d 	strb	r3, [fp, #-13]

    while(keypad_pressed()); // Espera a que sea distinto de 0
 c100e90:	e1a00000 	nop			; (mov r0, r0)
 c100e94:	ebffff8e 	bl	c100cd4 <keypad_pressed>
 c100e98:	e1a03000 	mov	r3, r0
 c100e9c:	e3530000 	cmp	r3, #0
 c100ea0:	1afffffb 	bne	c100e94 <keypad_getchartime+0x44>
    *ms = timer3_stop() /10;
 c100ea4:	eb000d6b 	bl	c104458 <timer3_stop>
 c100ea8:	e1a03000 	mov	r3, r0
 c100eac:	e1a02003 	mov	r2, r3
 c100eb0:	e59f3030 	ldr	r3, [pc, #48]	; c100ee8 <keypad_getchartime+0x98>
 c100eb4:	e0831392 	umull	r1, r3, r2, r3
 c100eb8:	e1a031a3 	lsr	r3, r3, #3
 c100ebc:	e1a03803 	lsl	r3, r3, #16
 c100ec0:	e1a02823 	lsr	r2, r3, #16
 c100ec4:	e51b3018 	ldr	r3, [fp, #-24]	; 0xffffffe8
 c100ec8:	e1c320b0 	strh	r2, [r3]
    sw_delay_ms(KEYPAD_KEYUP_DELAY);
 c100ecc:	e3a00064 	mov	r0, #100	; 0x64
 c100ed0:	eb000cf7 	bl	c1042b4 <sw_delay_ms>

    return scancode;
 c100ed4:	e55b300d 	ldrb	r3, [fp, #-13]
}
 c100ed8:	e1a00003 	mov	r0, r3
 c100edc:	e24bd00c 	sub	sp, fp, #12
 c100ee0:	e89d6800 	ldm	sp, {fp, sp, lr}
 c100ee4:	e12fff1e 	bx	lr
 c100ee8:	cccccccd 	.word	0xcccccccd

0c100eec <keypad_timeout_getchar>:

uint8 keypad_timeout_getchar( uint16 ms )
{
 c100eec:	e1a0c00d 	mov	ip, sp
 c100ef0:	e92dd800 	push	{fp, ip, lr, pc}
 c100ef4:	e24cb004 	sub	fp, ip, #4
 c100ef8:	e24dd010 	sub	sp, sp, #16
 c100efc:	e1a03000 	mov	r3, r0
 c100f00:	e14b31b6 	strh	r3, [fp, #-22]	; 0xffffffea
	uint8 scancode;

	timer3_start_timeout(10*ms);
 c100f04:	e15b31b6 	ldrh	r3, [fp, #-22]	; 0xffffffea
 c100f08:	e1a02003 	mov	r2, r3
 c100f0c:	e1a02102 	lsl	r2, r2, #2
 c100f10:	e0823003 	add	r3, r2, r3
 c100f14:	e1a03083 	lsl	r3, r3, #1
 c100f18:	e1a03803 	lsl	r3, r3, #16
 c100f1c:	e1a03823 	lsr	r3, r3, #16
 c100f20:	e1a00003 	mov	r0, r3
 c100f24:	eb000d60 	bl	c1044ac <timer3_start_timeout>
	while(!timer3_timeout() && !keypad_pressed()); // Espera que sea 0
 c100f28:	e1a00000 	nop			; (mov r0, r0)
 c100f2c:	eb000d8c 	bl	c104564 <timer3_timeout>
 c100f30:	e1a03000 	mov	r3, r0
 c100f34:	e3530000 	cmp	r3, #0
 c100f38:	1a000003 	bne	c100f4c <keypad_timeout_getchar+0x60>
 c100f3c:	ebffff64 	bl	c100cd4 <keypad_pressed>
 c100f40:	e1a03000 	mov	r3, r0
 c100f44:	e3530000 	cmp	r3, #0
 c100f48:	0afffff7 	beq	c100f2c <keypad_timeout_getchar+0x40>
	if (timer3_timeout()){
 c100f4c:	eb000d84 	bl	c104564 <timer3_timeout>
 c100f50:	e1a03000 	mov	r3, r0
 c100f54:	e3530000 	cmp	r3, #0
 c100f58:	0a000001 	beq	c100f64 <keypad_timeout_getchar+0x78>
		return KEYPAD_TIMEOUT;
 c100f5c:	e3a030fe 	mov	r3, #254	; 0xfe
 c100f60:	ea000010 	b	c100fa8 <keypad_timeout_getchar+0xbc>
	}
	else{
		sw_delay_ms(KEYPAD_KEYDOWN_DELAY);
 c100f64:	e3a0001e 	mov	r0, #30
 c100f68:	eb000cd1 	bl	c1042b4 <sw_delay_ms>
		scancode = keypad_scan();
 c100f6c:	ebfffecf 	bl	c100ab0 <keypad_scan>
 c100f70:	e1a03000 	mov	r3, r0
 c100f74:	e54b300d 	strb	r3, [fp, #-13]

		while(timer3_timeout() && keypad_pressed()); // Espera a que sea distinto de 0
 c100f78:	e1a00000 	nop			; (mov r0, r0)
 c100f7c:	eb000d78 	bl	c104564 <timer3_timeout>
 c100f80:	e1a03000 	mov	r3, r0
 c100f84:	e3530000 	cmp	r3, #0
 c100f88:	0a000003 	beq	c100f9c <keypad_timeout_getchar+0xb0>
 c100f8c:	ebffff50 	bl	c100cd4 <keypad_pressed>
 c100f90:	e1a03000 	mov	r3, r0
 c100f94:	e3530000 	cmp	r3, #0
 c100f98:	1afffff7 	bne	c100f7c <keypad_timeout_getchar+0x90>
		sw_delay_ms(KEYPAD_KEYUP_DELAY);
 c100f9c:	e3a00064 	mov	r0, #100	; 0x64
 c100fa0:	eb000cc3 	bl	c1042b4 <sw_delay_ms>

		return scancode;
 c100fa4:	e55b300d 	ldrb	r3, [fp, #-13]
	}
}
 c100fa8:	e1a00003 	mov	r0, r3
 c100fac:	e24bd00c 	sub	sp, fp, #12
 c100fb0:	e89d6800 	ldm	sp, {fp, sp, lr}
 c100fb4:	e12fff1e 	bx	lr

0c100fb8 <lcd_init>:
uint8 lcd_buffer[LCD_BUFFER_SIZE];

static uint8 state;

void lcd_init( void )
{      
 c100fb8:	e1a0c00d 	mov	ip, sp
 c100fbc:	e92dd800 	push	{fp, ip, lr, pc}
 c100fc0:	e24cb004 	sub	fp, ip, #4
    DITHMODE = 0x12210;
 c100fc4:	e59f30fc 	ldr	r3, [pc, #252]	; c1010c8 <lcd_init+0x110>
 c100fc8:	e59f20fc 	ldr	r2, [pc, #252]	; c1010cc <lcd_init+0x114>
 c100fcc:	e5832000 	str	r2, [r3]
    DP1_2    = 0xA5A5;
 c100fd0:	e59f30f8 	ldr	r3, [pc, #248]	; c1010d0 <lcd_init+0x118>
 c100fd4:	e59f20f8 	ldr	r2, [pc, #248]	; c1010d4 <lcd_init+0x11c>
 c100fd8:	e5832000 	str	r2, [r3]
    DP4_7    = 0xBA5DA65;
 c100fdc:	e59f30f4 	ldr	r3, [pc, #244]	; c1010d8 <lcd_init+0x120>
 c100fe0:	e59f20f4 	ldr	r2, [pc, #244]	; c1010dc <lcd_init+0x124>
 c100fe4:	e5832000 	str	r2, [r3]
    DP3_5    = 0xA5A5F;
 c100fe8:	e59f30f0 	ldr	r3, [pc, #240]	; c1010e0 <lcd_init+0x128>
 c100fec:	e59f20f0 	ldr	r2, [pc, #240]	; c1010e4 <lcd_init+0x12c>
 c100ff0:	e5832000 	str	r2, [r3]
    DP2_3    = 0xD6B;
 c100ff4:	e59f30ec 	ldr	r3, [pc, #236]	; c1010e8 <lcd_init+0x130>
 c100ff8:	e59f20ec 	ldr	r2, [pc, #236]	; c1010ec <lcd_init+0x134>
 c100ffc:	e5832000 	str	r2, [r3]
    DP5_7    = 0xEB7B5ED;
 c101000:	e59f30e8 	ldr	r3, [pc, #232]	; c1010f0 <lcd_init+0x138>
 c101004:	e59f20e8 	ldr	r2, [pc, #232]	; c1010f4 <lcd_init+0x13c>
 c101008:	e5832000 	str	r2, [r3]
    DP3_4    = 0x7DBE;
 c10100c:	e59f30e4 	ldr	r3, [pc, #228]	; c1010f8 <lcd_init+0x140>
 c101010:	e59f20e4 	ldr	r2, [pc, #228]	; c1010fc <lcd_init+0x144>
 c101014:	e5832000 	str	r2, [r3]
    DP4_5    = 0x7EBDF;
 c101018:	e59f30e0 	ldr	r3, [pc, #224]	; c101100 <lcd_init+0x148>
 c10101c:	e59f20e0 	ldr	r2, [pc, #224]	; c101104 <lcd_init+0x14c>
 c101020:	e5832000 	str	r2, [r3]
    DP6_7    = 0x7FDFBFE;
 c101024:	e59f30dc 	ldr	r3, [pc, #220]	; c101108 <lcd_init+0x150>
 c101028:	e59f20dc 	ldr	r2, [pc, #220]	; c10110c <lcd_init+0x154>
 c10102c:	e5832000 	str	r2, [r3]
    
    REDLUT   = 0x0;
 c101030:	e59f30d8 	ldr	r3, [pc, #216]	; c101110 <lcd_init+0x158>
 c101034:	e3a02000 	mov	r2, #0
 c101038:	e5832000 	str	r2, [r3]
    GREENLUT = 0x0;
 c10103c:	e59f30d0 	ldr	r3, [pc, #208]	; c101114 <lcd_init+0x15c>
 c101040:	e3a02000 	mov	r2, #0
 c101044:	e5832000 	str	r2, [r3]
    BLUELUT  = 0x0;
 c101048:	e59f30c8 	ldr	r3, [pc, #200]	; c101118 <lcd_init+0x160>
 c10104c:	e3a02000 	mov	r2, #0
 c101050:	e5832000 	str	r2, [r3]

    LCDCON1  = 0x1C020;
 c101054:	e3a0361f 	mov	r3, #32505856	; 0x1f00000
 c101058:	e59f20bc 	ldr	r2, [pc, #188]	; c10111c <lcd_init+0x164>
 c10105c:	e5832000 	str	r2, [r3]
    LCDCON2  = 0x13CEF;
 c101060:	e59f30b8 	ldr	r3, [pc, #184]	; c101120 <lcd_init+0x168>
 c101064:	e59f20b8 	ldr	r2, [pc, #184]	; c101124 <lcd_init+0x16c>
 c101068:	e5832000 	str	r2, [r3]
    LCDCON3  = 0x0;
 c10106c:	e59f30b4 	ldr	r3, [pc, #180]	; c101128 <lcd_init+0x170>
 c101070:	e3a02000 	mov	r2, #0
 c101074:	e5832000 	str	r2, [r3]

    LCDSADDR1 = (2 << 27) | ((uint32)lcd_buffer >> 1);
 c101078:	e59f30ac 	ldr	r3, [pc, #172]	; c10112c <lcd_init+0x174>
 c10107c:	e59f20ac 	ldr	r2, [pc, #172]	; c101130 <lcd_init+0x178>
 c101080:	e1a020a2 	lsr	r2, r2, #1
 c101084:	e3822201 	orr	r2, r2, #268435456	; 0x10000000
 c101088:	e5832000 	str	r2, [r3]
    LCDSADDR2 = (1 << 29) | (((uint32)lcd_buffer + LCD_BUFFER_SIZE) & 0x3FFFFF) >> 1;
 c10108c:	e59f20a0 	ldr	r2, [pc, #160]	; c101134 <lcd_init+0x17c>
 c101090:	e59f3098 	ldr	r3, [pc, #152]	; c101130 <lcd_init+0x178>
 c101094:	e2833c96 	add	r3, r3, #38400	; 0x9600
 c101098:	e3c334ff 	bic	r3, r3, #-16777216	; 0xff000000
 c10109c:	e3c33503 	bic	r3, r3, #12582912	; 0xc00000
 c1010a0:	e1a030a3 	lsr	r3, r3, #1
 c1010a4:	e3833202 	orr	r3, r3, #536870912	; 0x20000000
 c1010a8:	e5823000 	str	r3, [r2]
    LCDSADDR3 = 0x50;
 c1010ac:	e59f3084 	ldr	r3, [pc, #132]	; c101138 <lcd_init+0x180>
 c1010b0:	e3a02050 	mov	r2, #80	; 0x50
 c1010b4:	e5832000 	str	r2, [r3]
    
    lcd_off();
 c1010b8:	eb00002e 	bl	c101178 <lcd_off>
}
 c1010bc:	e24bd00c 	sub	sp, fp, #12
 c1010c0:	e89d6800 	ldm	sp, {fp, sp, lr}
 c1010c4:	e12fff1e 	bx	lr
 c1010c8:	01f00044 	.word	0x01f00044
 c1010cc:	00012210 	.word	0x00012210
 c1010d0:	01f00020 	.word	0x01f00020
 c1010d4:	0000a5a5 	.word	0x0000a5a5
 c1010d8:	01f00024 	.word	0x01f00024
 c1010dc:	0ba5da65 	.word	0x0ba5da65
 c1010e0:	01f00028 	.word	0x01f00028
 c1010e4:	000a5a5f 	.word	0x000a5a5f
 c1010e8:	01f0002c 	.word	0x01f0002c
 c1010ec:	00000d6b 	.word	0x00000d6b
 c1010f0:	01f00030 	.word	0x01f00030
 c1010f4:	0eb7b5ed 	.word	0x0eb7b5ed
 c1010f8:	01f00034 	.word	0x01f00034
 c1010fc:	00007dbe 	.word	0x00007dbe
 c101100:	01f00038 	.word	0x01f00038
 c101104:	0007ebdf 	.word	0x0007ebdf
 c101108:	01f0003c 	.word	0x01f0003c
 c10110c:	07fdfbfe 	.word	0x07fdfbfe
 c101110:	01f00014 	.word	0x01f00014
 c101114:	01f00018 	.word	0x01f00018
 c101118:	01f0001c 	.word	0x01f0001c
 c10111c:	0001c020 	.word	0x0001c020
 c101120:	01f00004 	.word	0x01f00004
 c101124:	00013cef 	.word	0x00013cef
 c101128:	01f00040 	.word	0x01f00040
 c10112c:	01f00008 	.word	0x01f00008
 c101130:	0c1072b8 	.word	0x0c1072b8
 c101134:	01f0000c 	.word	0x01f0000c
 c101138:	01f00010 	.word	0x01f00010

0c10113c <lcd_on>:

void lcd_on( void )
{
 c10113c:	e1a0c00d 	mov	ip, sp
 c101140:	e92dd800 	push	{fp, ip, lr, pc}
 c101144:	e24cb004 	sub	fp, ip, #4
    LCDCON1 |= (1 << 0);
 c101148:	e3a0361f 	mov	r3, #32505856	; 0x1f00000
 c10114c:	e3a0261f 	mov	r2, #32505856	; 0x1f00000
 c101150:	e5922000 	ldr	r2, [r2]
 c101154:	e3822001 	orr	r2, r2, #1
 c101158:	e5832000 	str	r2, [r3]
    state = ON;
 c10115c:	e59f3010 	ldr	r3, [pc, #16]	; c101174 <lcd_on+0x38>
 c101160:	e3a02001 	mov	r2, #1
 c101164:	e5c32000 	strb	r2, [r3]
}
 c101168:	e24bd00c 	sub	sp, fp, #12
 c10116c:	e89d6800 	ldm	sp, {fp, sp, lr}
 c101170:	e12fff1e 	bx	lr
 c101174:	0c1072a4 	.word	0x0c1072a4

0c101178 <lcd_off>:

void lcd_off( void )
{
 c101178:	e1a0c00d 	mov	ip, sp
 c10117c:	e92dd800 	push	{fp, ip, lr, pc}
 c101180:	e24cb004 	sub	fp, ip, #4
	LCDCON1 &= ~(1 << 0);
 c101184:	e3a0361f 	mov	r3, #32505856	; 0x1f00000
 c101188:	e3a0261f 	mov	r2, #32505856	; 0x1f00000
 c10118c:	e5922000 	ldr	r2, [r2]
 c101190:	e3c22001 	bic	r2, r2, #1
 c101194:	e5832000 	str	r2, [r3]
	state = OFF;
 c101198:	e59f3010 	ldr	r3, [pc, #16]	; c1011b0 <lcd_off+0x38>
 c10119c:	e3a02000 	mov	r2, #0
 c1011a0:	e5c32000 	strb	r2, [r3]
}
 c1011a4:	e24bd00c 	sub	sp, fp, #12
 c1011a8:	e89d6800 	ldm	sp, {fp, sp, lr}
 c1011ac:	e12fff1e 	bx	lr
 c1011b0:	0c1072a4 	.word	0x0c1072a4

0c1011b4 <lcd_status>:

uint8 lcd_status( void )
{
 c1011b4:	e1a0c00d 	mov	ip, sp
 c1011b8:	e92dd800 	push	{fp, ip, lr, pc}
 c1011bc:	e24cb004 	sub	fp, ip, #4
    return state;
 c1011c0:	e59f3010 	ldr	r3, [pc, #16]	; c1011d8 <lcd_status+0x24>
 c1011c4:	e5d33000 	ldrb	r3, [r3]
}
 c1011c8:	e1a00003 	mov	r0, r3
 c1011cc:	e24bd00c 	sub	sp, fp, #12
 c1011d0:	e89d6800 	ldm	sp, {fp, sp, lr}
 c1011d4:	e12fff1e 	bx	lr
 c1011d8:	0c1072a4 	.word	0x0c1072a4

0c1011dc <lcd_clear>:

void lcd_clear( void )
{
 c1011dc:	e1a0c00d 	mov	ip, sp
 c1011e0:	e92dd800 	push	{fp, ip, lr, pc}
 c1011e4:	e24cb004 	sub	fp, ip, #4
 c1011e8:	e24dd008 	sub	sp, sp, #8
    uint16 x, y;

    for (x = 0; x < LCD_WIDTH; ++x){
 c1011ec:	e3a03000 	mov	r3, #0
 c1011f0:	e14b30be 	strh	r3, [fp, #-14]
 c1011f4:	ea000011 	b	c101240 <lcd_clear+0x64>
    	for (y = 0; y < LCD_HEIGHT; ++y){
 c1011f8:	e3a03000 	mov	r3, #0
 c1011fc:	e14b31b0 	strh	r3, [fp, #-16]
 c101200:	ea000008 	b	c101228 <lcd_clear+0x4c>
    		lcd_putpixel(x, y, WHITE);
 c101204:	e15b20be 	ldrh	r2, [fp, #-14]
 c101208:	e15b31b0 	ldrh	r3, [fp, #-16]
 c10120c:	e1a00002 	mov	r0, r2
 c101210:	e1a01003 	mov	r1, r3
 c101214:	e3a02000 	mov	r2, #0
 c101218:	eb000010 	bl	c101260 <lcd_putpixel>
void lcd_clear( void )
{
    uint16 x, y;

    for (x = 0; x < LCD_WIDTH; ++x){
    	for (y = 0; y < LCD_HEIGHT; ++y){
 c10121c:	e15b31b0 	ldrh	r3, [fp, #-16]
 c101220:	e2833001 	add	r3, r3, #1
 c101224:	e14b31b0 	strh	r3, [fp, #-16]
 c101228:	e15b31b0 	ldrh	r3, [fp, #-16]
 c10122c:	e35300ef 	cmp	r3, #239	; 0xef
 c101230:	9afffff3 	bls	c101204 <lcd_clear+0x28>

void lcd_clear( void )
{
    uint16 x, y;

    for (x = 0; x < LCD_WIDTH; ++x){
 c101234:	e15b30be 	ldrh	r3, [fp, #-14]
 c101238:	e2833001 	add	r3, r3, #1
 c10123c:	e14b30be 	strh	r3, [fp, #-14]
 c101240:	e15b20be 	ldrh	r2, [fp, #-14]
 c101244:	e59f3010 	ldr	r3, [pc, #16]	; c10125c <lcd_clear+0x80>
 c101248:	e1520003 	cmp	r2, r3
 c10124c:	9affffe9 	bls	c1011f8 <lcd_clear+0x1c>
    	for (y = 0; y < LCD_HEIGHT; ++y){
    		lcd_putpixel(x, y, WHITE);
    	}
    }
}
 c101250:	e24bd00c 	sub	sp, fp, #12
 c101254:	e89d6800 	ldm	sp, {fp, sp, lr}
 c101258:	e12fff1e 	bx	lr
 c10125c:	0000013f 	.word	0x0000013f

0c101260 <lcd_putpixel>:

void lcd_putpixel( uint16 x, uint16 y, uint8 c)
{
 c101260:	e1a0c00d 	mov	ip, sp
 c101264:	e92dd800 	push	{fp, ip, lr, pc}
 c101268:	e24cb004 	sub	fp, ip, #4
 c10126c:	e24dd010 	sub	sp, sp, #16
 c101270:	e1a03002 	mov	r3, r2
 c101274:	e14b01b6 	strh	r0, [fp, #-22]	; 0xffffffea
 c101278:	e14b11b8 	strh	r1, [fp, #-24]	; 0xffffffe8
 c10127c:	e54b3019 	strb	r3, [fp, #-25]	; 0xffffffe7
    uint8 byte, bit;
    uint16 i;

    i = x/2 + y*(LCD_WIDTH/2);
 c101280:	e15b31b6 	ldrh	r3, [fp, #-22]	; 0xffffffea
 c101284:	e1a030a3 	lsr	r3, r3, #1
 c101288:	e1a03803 	lsl	r3, r3, #16
 c10128c:	e1a02823 	lsr	r2, r3, #16
 c101290:	e15b31b8 	ldrh	r3, [fp, #-24]	; 0xffffffe8
 c101294:	e1a01003 	mov	r1, r3
 c101298:	e1a01101 	lsl	r1, r1, #2
 c10129c:	e0813003 	add	r3, r1, r3
 c1012a0:	e1a03283 	lsl	r3, r3, #5
 c1012a4:	e1a03803 	lsl	r3, r3, #16
 c1012a8:	e1a03823 	lsr	r3, r3, #16
 c1012ac:	e0823003 	add	r3, r2, r3
 c1012b0:	e14b30be 	strh	r3, [fp, #-14]
    bit = (1-x%2)*4;
 c1012b4:	e15b31b6 	ldrh	r3, [fp, #-22]	; 0xffffffea
 c1012b8:	e2033001 	and	r3, r3, #1
 c1012bc:	e3530000 	cmp	r3, #0
 c1012c0:	1a000001 	bne	c1012cc <lcd_putpixel+0x6c>
 c1012c4:	e3a03004 	mov	r3, #4
 c1012c8:	ea000000 	b	c1012d0 <lcd_putpixel+0x70>
 c1012cc:	e3a03000 	mov	r3, #0
 c1012d0:	e54b300f 	strb	r3, [fp, #-15]
    
    byte = lcd_buffer[i];
 c1012d4:	e15b30be 	ldrh	r3, [fp, #-14]
 c1012d8:	e59f2068 	ldr	r2, [pc, #104]	; c101348 <lcd_putpixel+0xe8>
 c1012dc:	e7d23003 	ldrb	r3, [r2, r3]
 c1012e0:	e54b3010 	strb	r3, [fp, #-16]
    byte &= ~(0xF << bit);
 c1012e4:	e55b300f 	ldrb	r3, [fp, #-15]
 c1012e8:	e3a0200f 	mov	r2, #15
 c1012ec:	e1a03312 	lsl	r3, r2, r3
 c1012f0:	e20330ff 	and	r3, r3, #255	; 0xff
 c1012f4:	e1e03003 	mvn	r3, r3
 c1012f8:	e20320ff 	and	r2, r3, #255	; 0xff
 c1012fc:	e55b3010 	ldrb	r3, [fp, #-16]
 c101300:	e0023003 	and	r3, r2, r3
 c101304:	e20330ff 	and	r3, r3, #255	; 0xff
 c101308:	e54b3010 	strb	r3, [fp, #-16]
    byte |= c << bit;
 c10130c:	e55b2019 	ldrb	r2, [fp, #-25]	; 0xffffffe7
 c101310:	e55b300f 	ldrb	r3, [fp, #-15]
 c101314:	e1a03312 	lsl	r3, r2, r3
 c101318:	e20320ff 	and	r2, r3, #255	; 0xff
 c10131c:	e55b3010 	ldrb	r3, [fp, #-16]
 c101320:	e1823003 	orr	r3, r2, r3
 c101324:	e20330ff 	and	r3, r3, #255	; 0xff
 c101328:	e54b3010 	strb	r3, [fp, #-16]
    lcd_buffer[i] = byte;
 c10132c:	e15b30be 	ldrh	r3, [fp, #-14]
 c101330:	e59f2010 	ldr	r2, [pc, #16]	; c101348 <lcd_putpixel+0xe8>
 c101334:	e55b1010 	ldrb	r1, [fp, #-16]
 c101338:	e7c21003 	strb	r1, [r2, r3]
}
 c10133c:	e24bd00c 	sub	sp, fp, #12
 c101340:	e89d6800 	ldm	sp, {fp, sp, lr}
 c101344:	e12fff1e 	bx	lr
 c101348:	0c1072b8 	.word	0x0c1072b8

0c10134c <lcd_getpixel>:

uint8 lcd_getpixel( uint16 x, uint16 y )
{
 c10134c:	e1a0c00d 	mov	ip, sp
 c101350:	e92dd800 	push	{fp, ip, lr, pc}
 c101354:	e24cb004 	sub	fp, ip, #4
 c101358:	e24dd010 	sub	sp, sp, #16
 c10135c:	e1a02000 	mov	r2, r0
 c101360:	e1a03001 	mov	r3, r1
 c101364:	e14b21b6 	strh	r2, [fp, #-22]	; 0xffffffea
 c101368:	e14b31b8 	strh	r3, [fp, #-24]	; 0xffffffe8
    uint8 byte, bit;
    uint16 i;

    i = x/2 + y*(LCD_WIDTH/2);
 c10136c:	e15b31b6 	ldrh	r3, [fp, #-22]	; 0xffffffea
 c101370:	e1a030a3 	lsr	r3, r3, #1
 c101374:	e1a03803 	lsl	r3, r3, #16
 c101378:	e1a02823 	lsr	r2, r3, #16
 c10137c:	e15b31b8 	ldrh	r3, [fp, #-24]	; 0xffffffe8
 c101380:	e1a01003 	mov	r1, r3
 c101384:	e1a01101 	lsl	r1, r1, #2
 c101388:	e0813003 	add	r3, r1, r3
 c10138c:	e1a03283 	lsl	r3, r3, #5
 c101390:	e1a03803 	lsl	r3, r3, #16
 c101394:	e1a03823 	lsr	r3, r3, #16
 c101398:	e0823003 	add	r3, r2, r3
 c10139c:	e14b30be 	strh	r3, [fp, #-14]
    bit = (1-x%2)*4;
 c1013a0:	e15b31b6 	ldrh	r3, [fp, #-22]	; 0xffffffea
 c1013a4:	e2033001 	and	r3, r3, #1
 c1013a8:	e3530000 	cmp	r3, #0
 c1013ac:	1a000001 	bne	c1013b8 <lcd_getpixel+0x6c>
 c1013b0:	e3a03004 	mov	r3, #4
 c1013b4:	ea000000 	b	c1013bc <lcd_getpixel+0x70>
 c1013b8:	e3a03000 	mov	r3, #0
 c1013bc:	e54b300f 	strb	r3, [fp, #-15]

    byte = lcd_buffer[i];
 c1013c0:	e15b30be 	ldrh	r3, [fp, #-14]
 c1013c4:	e59f2018 	ldr	r2, [pc, #24]	; c1013e4 <lcd_getpixel+0x98>
 c1013c8:	e7d23003 	ldrb	r3, [r2, r3]
 c1013cc:	e54b3010 	strb	r3, [fp, #-16]

    return byte;
 c1013d0:	e55b3010 	ldrb	r3, [fp, #-16]
}
 c1013d4:	e1a00003 	mov	r0, r3
 c1013d8:	e24bd00c 	sub	sp, fp, #12
 c1013dc:	e89d6800 	ldm	sp, {fp, sp, lr}
 c1013e0:	e12fff1e 	bx	lr
 c1013e4:	0c1072b8 	.word	0x0c1072b8

0c1013e8 <lcd_draw_hrow>:

void lcd_draw_hrow( uint16 xleft, uint16 xright, uint16 y, uint8 color, uint16 width )
{
 c1013e8:	e1a0c00d 	mov	ip, sp
 c1013ec:	e92dd800 	push	{fp, ip, lr, pc}
 c1013f0:	e24cb004 	sub	fp, ip, #4
 c1013f4:	e24dd010 	sub	sp, sp, #16
 c1013f8:	e14b01b6 	strh	r0, [fp, #-22]	; 0xffffffea
 c1013fc:	e14b11b8 	strh	r1, [fp, #-24]	; 0xffffffe8
 c101400:	e14b21ba 	strh	r2, [fp, #-26]	; 0xffffffe6
 c101404:	e54b301b 	strb	r3, [fp, #-27]	; 0xffffffe5
    uint16 lenght;

    while (--width){
 c101408:	ea00001b 	b	c10147c <lcd_draw_hrow+0x94>
    	lenght = xright - xleft + 1;
 c10140c:	e15b21b8 	ldrh	r2, [fp, #-24]	; 0xffffffe8
 c101410:	e15b31b6 	ldrh	r3, [fp, #-22]	; 0xffffffea
 c101414:	e0633002 	rsb	r3, r3, r2
 c101418:	e1a03803 	lsl	r3, r3, #16
 c10141c:	e1a03823 	lsr	r3, r3, #16
 c101420:	e2833001 	add	r3, r3, #1
 c101424:	e14b30be 	strh	r3, [fp, #-14]
    	while (--lenght){
 c101428:	ea00000a 	b	c101458 <lcd_draw_hrow+0x70>
    		lcd_putpixel(xleft + lenght, y, color);
 c10142c:	e15b21b6 	ldrh	r2, [fp, #-22]	; 0xffffffea
 c101430:	e15b30be 	ldrh	r3, [fp, #-14]
 c101434:	e0823003 	add	r3, r2, r3
 c101438:	e1a03803 	lsl	r3, r3, #16
 c10143c:	e1a01823 	lsr	r1, r3, #16
 c101440:	e15b21ba 	ldrh	r2, [fp, #-26]	; 0xffffffe6
 c101444:	e55b301b 	ldrb	r3, [fp, #-27]	; 0xffffffe5
 c101448:	e1a00001 	mov	r0, r1
 c10144c:	e1a01002 	mov	r1, r2
 c101450:	e1a02003 	mov	r2, r3
 c101454:	ebffff81 	bl	c101260 <lcd_putpixel>
{
    uint16 lenght;

    while (--width){
    	lenght = xright - xleft + 1;
    	while (--lenght){
 c101458:	e15b30be 	ldrh	r3, [fp, #-14]
 c10145c:	e2433001 	sub	r3, r3, #1
 c101460:	e14b30be 	strh	r3, [fp, #-14]
 c101464:	e15b30be 	ldrh	r3, [fp, #-14]
 c101468:	e3530000 	cmp	r3, #0
 c10146c:	1affffee 	bne	c10142c <lcd_draw_hrow+0x44>
    		lcd_putpixel(xleft + lenght, y, color);
    	}
    	++y;
 c101470:	e15b31ba 	ldrh	r3, [fp, #-26]	; 0xffffffe6
 c101474:	e2833001 	add	r3, r3, #1
 c101478:	e14b31ba 	strh	r3, [fp, #-26]	; 0xffffffe6

void lcd_draw_hrow( uint16 xleft, uint16 xright, uint16 y, uint8 color, uint16 width )
{
    uint16 lenght;

    while (--width){
 c10147c:	e1db30b4 	ldrh	r3, [fp, #4]
 c101480:	e2433001 	sub	r3, r3, #1
 c101484:	e1cb30b4 	strh	r3, [fp, #4]
 c101488:	e1db30b4 	ldrh	r3, [fp, #4]
 c10148c:	e3530000 	cmp	r3, #0
 c101490:	1affffdd 	bne	c10140c <lcd_draw_hrow+0x24>
    	while (--lenght){
    		lcd_putpixel(xleft + lenght, y, color);
    	}
    	++y;
    }
}
 c101494:	e24bd00c 	sub	sp, fp, #12
 c101498:	e89d6800 	ldm	sp, {fp, sp, lr}
 c10149c:	e12fff1e 	bx	lr

0c1014a0 <lcd_draw_vrow>:

void lcd_draw_vrow( uint16 yup, uint16 ydown, uint16 x, uint8 color, uint16 width )
{
 c1014a0:	e1a0c00d 	mov	ip, sp
 c1014a4:	e92dd800 	push	{fp, ip, lr, pc}
 c1014a8:	e24cb004 	sub	fp, ip, #4
 c1014ac:	e24dd010 	sub	sp, sp, #16
 c1014b0:	e14b01b6 	strh	r0, [fp, #-22]	; 0xffffffea
 c1014b4:	e14b11b8 	strh	r1, [fp, #-24]	; 0xffffffe8
 c1014b8:	e14b21ba 	strh	r2, [fp, #-26]	; 0xffffffe6
 c1014bc:	e54b301b 	strb	r3, [fp, #-27]	; 0xffffffe5
    uint16 lenght;

    while (--width){
 c1014c0:	ea00001b 	b	c101534 <lcd_draw_vrow+0x94>
    	lenght = ydown - yup + 1;
 c1014c4:	e15b21b8 	ldrh	r2, [fp, #-24]	; 0xffffffe8
 c1014c8:	e15b31b6 	ldrh	r3, [fp, #-22]	; 0xffffffea
 c1014cc:	e0633002 	rsb	r3, r3, r2
 c1014d0:	e1a03803 	lsl	r3, r3, #16
 c1014d4:	e1a03823 	lsr	r3, r3, #16
 c1014d8:	e2833001 	add	r3, r3, #1
 c1014dc:	e14b30be 	strh	r3, [fp, #-14]
    	while (--lenght){
 c1014e0:	ea00000a 	b	c101510 <lcd_draw_vrow+0x70>
    		lcd_putpixel(x, yup + lenght, color);
 c1014e4:	e15b21b6 	ldrh	r2, [fp, #-22]	; 0xffffffea
 c1014e8:	e15b30be 	ldrh	r3, [fp, #-14]
 c1014ec:	e0823003 	add	r3, r2, r3
 c1014f0:	e1a03803 	lsl	r3, r3, #16
 c1014f4:	e1a02823 	lsr	r2, r3, #16
 c1014f8:	e15b11ba 	ldrh	r1, [fp, #-26]	; 0xffffffe6
 c1014fc:	e55b301b 	ldrb	r3, [fp, #-27]	; 0xffffffe5
 c101500:	e1a00001 	mov	r0, r1
 c101504:	e1a01002 	mov	r1, r2
 c101508:	e1a02003 	mov	r2, r3
 c10150c:	ebffff53 	bl	c101260 <lcd_putpixel>
{
    uint16 lenght;

    while (--width){
    	lenght = ydown - yup + 1;
    	while (--lenght){
 c101510:	e15b30be 	ldrh	r3, [fp, #-14]
 c101514:	e2433001 	sub	r3, r3, #1
 c101518:	e14b30be 	strh	r3, [fp, #-14]
 c10151c:	e15b30be 	ldrh	r3, [fp, #-14]
 c101520:	e3530000 	cmp	r3, #0
 c101524:	1affffee 	bne	c1014e4 <lcd_draw_vrow+0x44>
    		lcd_putpixel(x, yup + lenght, color);
    	}
    	++x;
 c101528:	e15b31ba 	ldrh	r3, [fp, #-26]	; 0xffffffe6
 c10152c:	e2833001 	add	r3, r3, #1
 c101530:	e14b31ba 	strh	r3, [fp, #-26]	; 0xffffffe6

void lcd_draw_vrow( uint16 yup, uint16 ydown, uint16 x, uint8 color, uint16 width )
{
    uint16 lenght;

    while (--width){
 c101534:	e1db30b4 	ldrh	r3, [fp, #4]
 c101538:	e2433001 	sub	r3, r3, #1
 c10153c:	e1cb30b4 	strh	r3, [fp, #4]
 c101540:	e1db30b4 	ldrh	r3, [fp, #4]
 c101544:	e3530000 	cmp	r3, #0
 c101548:	1affffdd 	bne	c1014c4 <lcd_draw_vrow+0x24>
    	while (--lenght){
    		lcd_putpixel(x, yup + lenght, color);
    	}
    	++x;
    }
}
 c10154c:	e24bd00c 	sub	sp, fp, #12
 c101550:	e89d6800 	ldm	sp, {fp, sp, lr}
 c101554:	e12fff1e 	bx	lr

0c101558 <lcd_draw_box>:

void lcd_draw_box( uint16 xleft, uint16 yup, uint16 xright, uint16 ydown, uint8 color, uint16 width )
{
 c101558:	e1a0c00d 	mov	ip, sp
 c10155c:	e92dd800 	push	{fp, ip, lr, pc}
 c101560:	e24cb004 	sub	fp, ip, #4
 c101564:	e24dd010 	sub	sp, sp, #16
 c101568:	e14b00be 	strh	r0, [fp, #-14]
 c10156c:	e14b11b0 	strh	r1, [fp, #-16]
 c101570:	e14b21b2 	strh	r2, [fp, #-18]	; 0xffffffee
 c101574:	e14b31b4 	strh	r3, [fp, #-20]	; 0xffffffec
	lcd_draw_hrow(xleft, xright, yup, color, width);
 c101578:	e15b00be 	ldrh	r0, [fp, #-14]
 c10157c:	e15b11b2 	ldrh	r1, [fp, #-18]	; 0xffffffee
 c101580:	e15b21b0 	ldrh	r2, [fp, #-16]
 c101584:	e5db3004 	ldrb	r3, [fp, #4]
 c101588:	e1dbc0b8 	ldrh	ip, [fp, #8]
 c10158c:	e58dc000 	str	ip, [sp]
 c101590:	ebffff94 	bl	c1013e8 <lcd_draw_hrow>
	lcd_draw_hrow(xleft, xright, ydown, color, width);
 c101594:	e15b00be 	ldrh	r0, [fp, #-14]
 c101598:	e15b11b2 	ldrh	r1, [fp, #-18]	; 0xffffffee
 c10159c:	e15b21b4 	ldrh	r2, [fp, #-20]	; 0xffffffec
 c1015a0:	e5db3004 	ldrb	r3, [fp, #4]
 c1015a4:	e1dbc0b8 	ldrh	ip, [fp, #8]
 c1015a8:	e58dc000 	str	ip, [sp]
 c1015ac:	ebffff8d 	bl	c1013e8 <lcd_draw_hrow>
    lcd_draw_vrow(yup, ydown, xleft, color, width);
 c1015b0:	e15b01b0 	ldrh	r0, [fp, #-16]
 c1015b4:	e15b11b4 	ldrh	r1, [fp, #-20]	; 0xffffffec
 c1015b8:	e15b20be 	ldrh	r2, [fp, #-14]
 c1015bc:	e5db3004 	ldrb	r3, [fp, #4]
 c1015c0:	e1dbc0b8 	ldrh	ip, [fp, #8]
 c1015c4:	e58dc000 	str	ip, [sp]
 c1015c8:	ebffffb4 	bl	c1014a0 <lcd_draw_vrow>
    lcd_draw_vrow(yup, ydown, xright, color, width);
 c1015cc:	e15b01b0 	ldrh	r0, [fp, #-16]
 c1015d0:	e15b11b4 	ldrh	r1, [fp, #-20]	; 0xffffffec
 c1015d4:	e15b21b2 	ldrh	r2, [fp, #-18]	; 0xffffffee
 c1015d8:	e5db3004 	ldrb	r3, [fp, #4]
 c1015dc:	e1dbc0b8 	ldrh	ip, [fp, #8]
 c1015e0:	e58dc000 	str	ip, [sp]
 c1015e4:	ebffffad 	bl	c1014a0 <lcd_draw_vrow>
}
 c1015e8:	e24bd00c 	sub	sp, fp, #12
 c1015ec:	e89d6800 	ldm	sp, {fp, sp, lr}
 c1015f0:	e12fff1e 	bx	lr

0c1015f4 <lcd_putchar>:

void lcd_putchar( uint16 x, uint16 y, uint8 color, char ch )
{
 c1015f4:	e1a0c00d 	mov	ip, sp
 c1015f8:	e92dd800 	push	{fp, ip, lr, pc}
 c1015fc:	e24cb004 	sub	fp, ip, #4
 c101600:	e24dd010 	sub	sp, sp, #16
 c101604:	e14b01b6 	strh	r0, [fp, #-22]	; 0xffffffea
 c101608:	e14b11b8 	strh	r1, [fp, #-24]	; 0xffffffe8
 c10160c:	e54b2019 	strb	r2, [fp, #-25]	; 0xffffffe7
 c101610:	e54b301a 	strb	r3, [fp, #-26]	; 0xffffffe6
    uint8 row, col;
    uint8 *bitmap;

    bitmap = font + ch*16;
 c101614:	e55b301a 	ldrb	r3, [fp, #-26]	; 0xffffffe6
 c101618:	e1a03203 	lsl	r3, r3, #4
 c10161c:	e1a02003 	mov	r2, r3
 c101620:	e59f311c 	ldr	r3, [pc, #284]	; c101744 <lcd_putchar+0x150>
 c101624:	e0823003 	add	r3, r2, r3
 c101628:	e50b3014 	str	r3, [fp, #-20]	; 0xffffffec
    for( row=0; row<16; row++ )
 c10162c:	e3a03000 	mov	r3, #0
 c101630:	e54b300d 	strb	r3, [fp, #-13]
 c101634:	ea00003c 	b	c10172c <lcd_putchar+0x138>
        for( col=0; col<8; col++ )                    
 c101638:	e3a03000 	mov	r3, #0
 c10163c:	e54b300e 	strb	r3, [fp, #-14]
 c101640:	ea000033 	b	c101714 <lcd_putchar+0x120>
            if( bitmap[row] & (0x80 >> col) )
 c101644:	e55b300d 	ldrb	r3, [fp, #-13]
 c101648:	e51b2014 	ldr	r2, [fp, #-20]	; 0xffffffec
 c10164c:	e0823003 	add	r3, r2, r3
 c101650:	e5d33000 	ldrb	r3, [r3]
 c101654:	e1a02003 	mov	r2, r3
 c101658:	e55b300e 	ldrb	r3, [fp, #-14]
 c10165c:	e3a01080 	mov	r1, #128	; 0x80
 c101660:	e1a03351 	asr	r3, r1, r3
 c101664:	e0023003 	and	r3, r2, r3
 c101668:	e3530000 	cmp	r3, #0
 c10166c:	0a000013 	beq	c1016c0 <lcd_putchar+0xcc>
                lcd_putpixel( x+col, y+row, color );
 c101670:	e55b300e 	ldrb	r3, [fp, #-14]
 c101674:	e1a03803 	lsl	r3, r3, #16
 c101678:	e1a02823 	lsr	r2, r3, #16
 c10167c:	e15b31b6 	ldrh	r3, [fp, #-22]	; 0xffffffea
 c101680:	e0823003 	add	r3, r2, r3
 c101684:	e1a03803 	lsl	r3, r3, #16
 c101688:	e1a01823 	lsr	r1, r3, #16
 c10168c:	e55b300d 	ldrb	r3, [fp, #-13]
 c101690:	e1a03803 	lsl	r3, r3, #16
 c101694:	e1a02823 	lsr	r2, r3, #16
 c101698:	e15b31b8 	ldrh	r3, [fp, #-24]	; 0xffffffe8
 c10169c:	e0823003 	add	r3, r2, r3
 c1016a0:	e1a03803 	lsl	r3, r3, #16
 c1016a4:	e1a02823 	lsr	r2, r3, #16
 c1016a8:	e55b3019 	ldrb	r3, [fp, #-25]	; 0xffffffe7
 c1016ac:	e1a00001 	mov	r0, r1
 c1016b0:	e1a01002 	mov	r1, r2
 c1016b4:	e1a02003 	mov	r2, r3
 c1016b8:	ebfffee8 	bl	c101260 <lcd_putpixel>
 c1016bc:	ea000011 	b	c101708 <lcd_putchar+0x114>
            else
                lcd_putpixel( x+col, y+row, WHITE );
 c1016c0:	e55b300e 	ldrb	r3, [fp, #-14]
 c1016c4:	e1a03803 	lsl	r3, r3, #16
 c1016c8:	e1a02823 	lsr	r2, r3, #16
 c1016cc:	e15b31b6 	ldrh	r3, [fp, #-22]	; 0xffffffea
 c1016d0:	e0823003 	add	r3, r2, r3
 c1016d4:	e1a03803 	lsl	r3, r3, #16
 c1016d8:	e1a02823 	lsr	r2, r3, #16
 c1016dc:	e55b300d 	ldrb	r3, [fp, #-13]
 c1016e0:	e1a03803 	lsl	r3, r3, #16
 c1016e4:	e1a01823 	lsr	r1, r3, #16
 c1016e8:	e15b31b8 	ldrh	r3, [fp, #-24]	; 0xffffffe8
 c1016ec:	e0813003 	add	r3, r1, r3
 c1016f0:	e1a03803 	lsl	r3, r3, #16
 c1016f4:	e1a03823 	lsr	r3, r3, #16
 c1016f8:	e1a00002 	mov	r0, r2
 c1016fc:	e1a01003 	mov	r1, r3
 c101700:	e3a02000 	mov	r2, #0
 c101704:	ebfffed5 	bl	c101260 <lcd_putpixel>
    uint8 row, col;
    uint8 *bitmap;

    bitmap = font + ch*16;
    for( row=0; row<16; row++ )
        for( col=0; col<8; col++ )                    
 c101708:	e55b300e 	ldrb	r3, [fp, #-14]
 c10170c:	e2833001 	add	r3, r3, #1
 c101710:	e54b300e 	strb	r3, [fp, #-14]
 c101714:	e55b300e 	ldrb	r3, [fp, #-14]
 c101718:	e3530007 	cmp	r3, #7
 c10171c:	9affffc8 	bls	c101644 <lcd_putchar+0x50>
{
    uint8 row, col;
    uint8 *bitmap;

    bitmap = font + ch*16;
    for( row=0; row<16; row++ )
 c101720:	e55b300d 	ldrb	r3, [fp, #-13]
 c101724:	e2833001 	add	r3, r3, #1
 c101728:	e54b300d 	strb	r3, [fp, #-13]
 c10172c:	e55b300d 	ldrb	r3, [fp, #-13]
 c101730:	e353000f 	cmp	r3, #15
 c101734:	9affffbf 	bls	c101638 <lcd_putchar+0x44>
        for( col=0; col<8; col++ )                    
            if( bitmap[row] & (0x80 >> col) )
                lcd_putpixel( x+col, y+row, color );
            else
                lcd_putpixel( x+col, y+row, WHITE );
}
 c101738:	e24bd00c 	sub	sp, fp, #12
 c10173c:	e89d6800 	ldm	sp, {fp, sp, lr}
 c101740:	e12fff1e 	bx	lr
 c101744:	0c1061e8 	.word	0x0c1061e8

0c101748 <lcd_puts>:

void lcd_puts( uint16 x, uint16 y, uint8 color, char *s )
{
 c101748:	e1a0c00d 	mov	ip, sp
 c10174c:	e92dd800 	push	{fp, ip, lr, pc}
 c101750:	e24cb004 	sub	fp, ip, #4
 c101754:	e24dd010 	sub	sp, sp, #16
 c101758:	e50b3018 	str	r3, [fp, #-24]	; 0xffffffe8
 c10175c:	e14b00be 	strh	r0, [fp, #-14]
 c101760:	e14b11b0 	strh	r1, [fp, #-16]
 c101764:	e1a03002 	mov	r3, r2
 c101768:	e54b3011 	strb	r3, [fp, #-17]	; 0xffffffef
	while (*s){
 c10176c:	ea00000b 	b	c1017a0 <lcd_puts+0x58>
	    	lcd_putchar(x, y, color, *s);
 c101770:	e51b3018 	ldr	r3, [fp, #-24]	; 0xffffffe8
 c101774:	e5d33000 	ldrb	r3, [r3]
 c101778:	e15b00be 	ldrh	r0, [fp, #-14]
 c10177c:	e15b11b0 	ldrh	r1, [fp, #-16]
 c101780:	e55b2011 	ldrb	r2, [fp, #-17]	; 0xffffffef
 c101784:	ebffff9a 	bl	c1015f4 <lcd_putchar>
	    	*++s;
 c101788:	e51b3018 	ldr	r3, [fp, #-24]	; 0xffffffe8
 c10178c:	e2833001 	add	r3, r3, #1
 c101790:	e50b3018 	str	r3, [fp, #-24]	; 0xffffffe8
	    	x += 8;
 c101794:	e15b30be 	ldrh	r3, [fp, #-14]
 c101798:	e2833008 	add	r3, r3, #8
 c10179c:	e14b30be 	strh	r3, [fp, #-14]
                lcd_putpixel( x+col, y+row, WHITE );
}

void lcd_puts( uint16 x, uint16 y, uint8 color, char *s )
{
	while (*s){
 c1017a0:	e51b3018 	ldr	r3, [fp, #-24]	; 0xffffffe8
 c1017a4:	e5d33000 	ldrb	r3, [r3]
 c1017a8:	e3530000 	cmp	r3, #0
 c1017ac:	1affffef 	bne	c101770 <lcd_puts+0x28>
	    	lcd_putchar(x, y, color, *s);
	    	*++s;
	    	x += 8;
	    }
}
 c1017b0:	e24bd00c 	sub	sp, fp, #12
 c1017b4:	e89d6800 	ldm	sp, {fp, sp, lr}
 c1017b8:	e12fff1e 	bx	lr

0c1017bc <lcd_putint>:

void lcd_putint( uint16 x, uint16 y, uint8 color, int32 i )
{
 c1017bc:	e1a0c00d 	mov	ip, sp
 c1017c0:	e92dd800 	push	{fp, ip, lr, pc}
 c1017c4:	e24cb004 	sub	fp, ip, #4
 c1017c8:	e24dd028 	sub	sp, sp, #40	; 0x28
 c1017cc:	e50b3030 	str	r3, [fp, #-48]	; 0xffffffd0
 c1017d0:	e14b02b6 	strh	r0, [fp, #-38]	; 0xffffffda
 c1017d4:	e14b12b8 	strh	r1, [fp, #-40]	; 0xffffffd8
 c1017d8:	e1a03002 	mov	r3, r2
 c1017dc:	e54b3029 	strb	r3, [fp, #-41]	; 0xffffffd7
    char buf[16 + 1];
    char *p = buf + 16;
 c1017e0:	e24b3024 	sub	r3, fp, #36	; 0x24
 c1017e4:	e2833010 	add	r3, r3, #16
 c1017e8:	e50b3010 	str	r3, [fp, #-16]
    uint8 c;
    char negativo = 0;
 c1017ec:	e3a03000 	mov	r3, #0
 c1017f0:	e54b3011 	strb	r3, [fp, #-17]	; 0xffffffef

    *p = '\0';
 c1017f4:	e51b3010 	ldr	r3, [fp, #-16]
 c1017f8:	e3a02000 	mov	r2, #0
 c1017fc:	e5c32000 	strb	r2, [r3]

    if (i < 0){
 c101800:	e51b3030 	ldr	r3, [fp, #-48]	; 0xffffffd0
 c101804:	e3530000 	cmp	r3, #0
 c101808:	aa000004 	bge	c101820 <lcd_putint+0x64>
        negativo = '1';
 c10180c:	e3a03031 	mov	r3, #49	; 0x31
 c101810:	e54b3011 	strb	r3, [fp, #-17]	; 0xffffffef
        i *= (-1);
 c101814:	e51b3030 	ldr	r3, [fp, #-48]	; 0xffffffd0
 c101818:	e2633000 	rsb	r3, r3, #0
 c10181c:	e50b3030 	str	r3, [fp, #-48]	; 0xffffffd0
    }

    do {
        c = i % 10;
 c101820:	e51b1030 	ldr	r1, [fp, #-48]	; 0xffffffd0
 c101824:	e59f30c0 	ldr	r3, [pc, #192]	; c1018ec <lcd_putint+0x130>
 c101828:	e0c32391 	smull	r2, r3, r1, r3
 c10182c:	e1a02143 	asr	r2, r3, #2
 c101830:	e1a03fc1 	asr	r3, r1, #31
 c101834:	e0632002 	rsb	r2, r3, r2
 c101838:	e1a03002 	mov	r3, r2
 c10183c:	e1a03103 	lsl	r3, r3, #2
 c101840:	e0833002 	add	r3, r3, r2
 c101844:	e1a03083 	lsl	r3, r3, #1
 c101848:	e0632001 	rsb	r2, r3, r1
 c10184c:	e1a03002 	mov	r3, r2
 c101850:	e54b3012 	strb	r3, [fp, #-18]	; 0xffffffee
        *--p = '0' + c;
 c101854:	e51b3010 	ldr	r3, [fp, #-16]
 c101858:	e2433001 	sub	r3, r3, #1
 c10185c:	e50b3010 	str	r3, [fp, #-16]
 c101860:	e55b3012 	ldrb	r3, [fp, #-18]	; 0xffffffee
 c101864:	e2833030 	add	r3, r3, #48	; 0x30
 c101868:	e20320ff 	and	r2, r3, #255	; 0xff
 c10186c:	e51b3010 	ldr	r3, [fp, #-16]
 c101870:	e5c32000 	strb	r2, [r3]
        i /= 10;
 c101874:	e51b3030 	ldr	r3, [fp, #-48]	; 0xffffffd0
 c101878:	e59f206c 	ldr	r2, [pc, #108]	; c1018ec <lcd_putint+0x130>
 c10187c:	e0c21293 	smull	r1, r2, r3, r2
 c101880:	e1a02142 	asr	r2, r2, #2
 c101884:	e1a03fc3 	asr	r3, r3, #31
 c101888:	e0633002 	rsb	r3, r3, r2
 c10188c:	e50b3030 	str	r3, [fp, #-48]	; 0xffffffd0
    } while( i );
 c101890:	e51b3030 	ldr	r3, [fp, #-48]	; 0xffffffd0
 c101894:	e3530000 	cmp	r3, #0
 c101898:	1affffe0 	bne	c101820 <lcd_putint+0x64>

    if (negativo){ *--p = '-';}
 c10189c:	e55b3011 	ldrb	r3, [fp, #-17]	; 0xffffffef
 c1018a0:	e3530000 	cmp	r3, #0
 c1018a4:	0a000005 	beq	c1018c0 <lcd_putint+0x104>
 c1018a8:	e51b3010 	ldr	r3, [fp, #-16]
 c1018ac:	e2433001 	sub	r3, r3, #1
 c1018b0:	e50b3010 	str	r3, [fp, #-16]
 c1018b4:	e51b3010 	ldr	r3, [fp, #-16]
 c1018b8:	e3a0202d 	mov	r2, #45	; 0x2d
 c1018bc:	e5c32000 	strb	r2, [r3]

    lcd_puts(x, y, color, p);
 c1018c0:	e15b12b6 	ldrh	r1, [fp, #-38]	; 0xffffffda
 c1018c4:	e15b22b8 	ldrh	r2, [fp, #-40]	; 0xffffffd8
 c1018c8:	e55b3029 	ldrb	r3, [fp, #-41]	; 0xffffffd7
 c1018cc:	e1a00001 	mov	r0, r1
 c1018d0:	e1a01002 	mov	r1, r2
 c1018d4:	e1a02003 	mov	r2, r3
 c1018d8:	e51b3010 	ldr	r3, [fp, #-16]
 c1018dc:	ebffff99 	bl	c101748 <lcd_puts>
}
 c1018e0:	e24bd00c 	sub	sp, fp, #12
 c1018e4:	e89d6800 	ldm	sp, {fp, sp, lr}
 c1018e8:	e12fff1e 	bx	lr
 c1018ec:	66666667 	.word	0x66666667

0c1018f0 <lcd_puthex>:

void lcd_puthex( uint16 x, uint16 y, uint8 color, uint32 i )
{
 c1018f0:	e1a0c00d 	mov	ip, sp
 c1018f4:	e92dd800 	push	{fp, ip, lr, pc}
 c1018f8:	e24cb004 	sub	fp, ip, #4
 c1018fc:	e24dd020 	sub	sp, sp, #32
 c101900:	e50b3028 	str	r3, [fp, #-40]	; 0xffffffd8
 c101904:	e14b01be 	strh	r0, [fp, #-30]	; 0xffffffe2
 c101908:	e14b12b0 	strh	r1, [fp, #-32]	; 0xffffffe0
 c10190c:	e1a03002 	mov	r3, r2
 c101910:	e54b3021 	strb	r3, [fp, #-33]	; 0xffffffdf
	   char buf[8 + 1];
	    char *p = buf + 8;
 c101914:	e24b301c 	sub	r3, fp, #28
 c101918:	e2833008 	add	r3, r3, #8
 c10191c:	e50b3010 	str	r3, [fp, #-16]
	    uint8 c;

	    *p = '\0';
 c101920:	e51b3010 	ldr	r3, [fp, #-16]
 c101924:	e3a02000 	mov	r2, #0
 c101928:	e5c32000 	strb	r2, [r3]

	    do {
	    	c = i & 0xF;
 c10192c:	e51b3028 	ldr	r3, [fp, #-40]	; 0xffffffd8
 c101930:	e20330ff 	and	r3, r3, #255	; 0xff
 c101934:	e203300f 	and	r3, r3, #15
 c101938:	e54b3011 	strb	r3, [fp, #-17]	; 0xffffffef
	    	if  (c < 10){
 c10193c:	e55b3011 	ldrb	r3, [fp, #-17]	; 0xffffffef
 c101940:	e3530009 	cmp	r3, #9
 c101944:	8a000008 	bhi	c10196c <lcd_puthex+0x7c>
	    		*--p = '0' + c;
 c101948:	e51b3010 	ldr	r3, [fp, #-16]
 c10194c:	e2433001 	sub	r3, r3, #1
 c101950:	e50b3010 	str	r3, [fp, #-16]
 c101954:	e55b3011 	ldrb	r3, [fp, #-17]	; 0xffffffef
 c101958:	e2833030 	add	r3, r3, #48	; 0x30
 c10195c:	e20320ff 	and	r2, r3, #255	; 0xff
 c101960:	e51b3010 	ldr	r3, [fp, #-16]
 c101964:	e5c32000 	strb	r2, [r3]
 c101968:	ea000007 	b	c10198c <lcd_puthex+0x9c>
	    	}
	    	else {
	    		*--p = 'a' + c - 10;
 c10196c:	e51b3010 	ldr	r3, [fp, #-16]
 c101970:	e2433001 	sub	r3, r3, #1
 c101974:	e50b3010 	str	r3, [fp, #-16]
 c101978:	e55b3011 	ldrb	r3, [fp, #-17]	; 0xffffffef
 c10197c:	e2833057 	add	r3, r3, #87	; 0x57
 c101980:	e20320ff 	and	r2, r3, #255	; 0xff
 c101984:	e51b3010 	ldr	r3, [fp, #-16]
 c101988:	e5c32000 	strb	r2, [r3]
	    	}
	    	i = i >> 4;
 c10198c:	e51b3028 	ldr	r3, [fp, #-40]	; 0xffffffd8
 c101990:	e1a03223 	lsr	r3, r3, #4
 c101994:	e50b3028 	str	r3, [fp, #-40]	; 0xffffffd8
	    }while(i);
 c101998:	e51b3028 	ldr	r3, [fp, #-40]	; 0xffffffd8
 c10199c:	e3530000 	cmp	r3, #0
 c1019a0:	1affffe1 	bne	c10192c <lcd_puthex+0x3c>

	    lcd_puts(x, y, color, p);
 c1019a4:	e15b11be 	ldrh	r1, [fp, #-30]	; 0xffffffe2
 c1019a8:	e15b22b0 	ldrh	r2, [fp, #-32]	; 0xffffffe0
 c1019ac:	e55b3021 	ldrb	r3, [fp, #-33]	; 0xffffffdf
 c1019b0:	e1a00001 	mov	r0, r1
 c1019b4:	e1a01002 	mov	r1, r2
 c1019b8:	e1a02003 	mov	r2, r3
 c1019bc:	e51b3010 	ldr	r3, [fp, #-16]
 c1019c0:	ebffff60 	bl	c101748 <lcd_puts>
}
 c1019c4:	e24bd00c 	sub	sp, fp, #12
 c1019c8:	e89d6800 	ldm	sp, {fp, sp, lr}
 c1019cc:	e12fff1e 	bx	lr

0c1019d0 <lcd_putchar_x2>:

void lcd_putchar_x2( uint16 x, uint16 y, uint8 color, char ch )
{
 c1019d0:	e1a0c00d 	mov	ip, sp
 c1019d4:	e92dd800 	push	{fp, ip, lr, pc}
 c1019d8:	e24cb004 	sub	fp, ip, #4
 c1019dc:	e24dd010 	sub	sp, sp, #16
 c1019e0:	e14b01b6 	strh	r0, [fp, #-22]	; 0xffffffea
 c1019e4:	e14b11b8 	strh	r1, [fp, #-24]	; 0xffffffe8
 c1019e8:	e54b2019 	strb	r2, [fp, #-25]	; 0xffffffe7
 c1019ec:	e54b301a 	strb	r3, [fp, #-26]	; 0xffffffe6
    uint8 row, col;
    uint8 *bitmap;

    bitmap = font + ch*16;
 c1019f0:	e55b301a 	ldrb	r3, [fp, #-26]	; 0xffffffe6
 c1019f4:	e1a03203 	lsl	r3, r3, #4
 c1019f8:	e1a02003 	mov	r2, r3
 c1019fc:	e59f3478 	ldr	r3, [pc, #1144]	; c101e7c <lcd_putchar_x2+0x4ac>
 c101a00:	e0823003 	add	r3, r2, r3
 c101a04:	e50b3014 	str	r3, [fp, #-20]	; 0xffffffec
    for( row=0; row<16; row++ ){
 c101a08:	e3a03000 	mov	r3, #0
 c101a0c:	e54b300d 	strb	r3, [fp, #-13]
 c101a10:	ea000113 	b	c101e64 <lcd_putchar_x2+0x494>
        for( col=0; col<8; col++ ){
 c101a14:	e3a03000 	mov	r3, #0
 c101a18:	e54b300e 	strb	r3, [fp, #-14]
 c101a1c:	ea00010a 	b	c101e4c <lcd_putchar_x2+0x47c>
            if( bitmap[row] & (0x80 >> col) ){
 c101a20:	e55b300d 	ldrb	r3, [fp, #-13]
 c101a24:	e51b2014 	ldr	r2, [fp, #-20]	; 0xffffffec
 c101a28:	e0823003 	add	r3, r2, r3
 c101a2c:	e5d33000 	ldrb	r3, [r3]
 c101a30:	e1a02003 	mov	r2, r3
 c101a34:	e55b300e 	ldrb	r3, [fp, #-14]
 c101a38:	e3a01080 	mov	r1, #128	; 0x80
 c101a3c:	e1a03351 	asr	r3, r1, r3
 c101a40:	e0023003 	and	r3, r2, r3
 c101a44:	e3530000 	cmp	r3, #0
 c101a48:	0a000080 	beq	c101c50 <lcd_putchar_x2+0x280>
                lcd_putpixel(2*(x+col) - x, 2*(y+row) - y, color );
 c101a4c:	e15b21b6 	ldrh	r2, [fp, #-22]	; 0xffffffea
 c101a50:	e55b300e 	ldrb	r3, [fp, #-14]
 c101a54:	e0823003 	add	r3, r2, r3
 c101a58:	e1a03803 	lsl	r3, r3, #16
 c101a5c:	e1a03823 	lsr	r3, r3, #16
 c101a60:	e1a03083 	lsl	r3, r3, #1
 c101a64:	e1a03803 	lsl	r3, r3, #16
 c101a68:	e1a02823 	lsr	r2, r3, #16
 c101a6c:	e15b31b6 	ldrh	r3, [fp, #-22]	; 0xffffffea
 c101a70:	e0633002 	rsb	r3, r3, r2
 c101a74:	e1a03803 	lsl	r3, r3, #16
 c101a78:	e1a01823 	lsr	r1, r3, #16
 c101a7c:	e15b21b8 	ldrh	r2, [fp, #-24]	; 0xffffffe8
 c101a80:	e55b300d 	ldrb	r3, [fp, #-13]
 c101a84:	e0823003 	add	r3, r2, r3
 c101a88:	e1a03803 	lsl	r3, r3, #16
 c101a8c:	e1a03823 	lsr	r3, r3, #16
 c101a90:	e1a03083 	lsl	r3, r3, #1
 c101a94:	e1a03803 	lsl	r3, r3, #16
 c101a98:	e1a02823 	lsr	r2, r3, #16
 c101a9c:	e15b31b8 	ldrh	r3, [fp, #-24]	; 0xffffffe8
 c101aa0:	e0633002 	rsb	r3, r3, r2
 c101aa4:	e1a03803 	lsl	r3, r3, #16
 c101aa8:	e1a02823 	lsr	r2, r3, #16
 c101aac:	e55b3019 	ldrb	r3, [fp, #-25]	; 0xffffffe7
 c101ab0:	e1a00001 	mov	r0, r1
 c101ab4:	e1a01002 	mov	r1, r2
 c101ab8:	e1a02003 	mov	r2, r3
 c101abc:	ebfffde7 	bl	c101260 <lcd_putpixel>
    			lcd_putpixel(2*(x+col) - x - 1, 2*(y+row) - y, color );
 c101ac0:	e15b21b6 	ldrh	r2, [fp, #-22]	; 0xffffffea
 c101ac4:	e55b300e 	ldrb	r3, [fp, #-14]
 c101ac8:	e0823003 	add	r3, r2, r3
 c101acc:	e1a03803 	lsl	r3, r3, #16
 c101ad0:	e1a03823 	lsr	r3, r3, #16
 c101ad4:	e1a03083 	lsl	r3, r3, #1
 c101ad8:	e1a03803 	lsl	r3, r3, #16
 c101adc:	e1a02823 	lsr	r2, r3, #16
 c101ae0:	e15b31b6 	ldrh	r3, [fp, #-22]	; 0xffffffea
 c101ae4:	e0633002 	rsb	r3, r3, r2
 c101ae8:	e1a03803 	lsl	r3, r3, #16
 c101aec:	e1a03823 	lsr	r3, r3, #16
 c101af0:	e2433001 	sub	r3, r3, #1
 c101af4:	e1a03803 	lsl	r3, r3, #16
 c101af8:	e1a01823 	lsr	r1, r3, #16
 c101afc:	e15b21b8 	ldrh	r2, [fp, #-24]	; 0xffffffe8
 c101b00:	e55b300d 	ldrb	r3, [fp, #-13]
 c101b04:	e0823003 	add	r3, r2, r3
 c101b08:	e1a03803 	lsl	r3, r3, #16
 c101b0c:	e1a03823 	lsr	r3, r3, #16
 c101b10:	e1a03083 	lsl	r3, r3, #1
 c101b14:	e1a03803 	lsl	r3, r3, #16
 c101b18:	e1a02823 	lsr	r2, r3, #16
 c101b1c:	e15b31b8 	ldrh	r3, [fp, #-24]	; 0xffffffe8
 c101b20:	e0633002 	rsb	r3, r3, r2
 c101b24:	e1a03803 	lsl	r3, r3, #16
 c101b28:	e1a02823 	lsr	r2, r3, #16
 c101b2c:	e55b3019 	ldrb	r3, [fp, #-25]	; 0xffffffe7
 c101b30:	e1a00001 	mov	r0, r1
 c101b34:	e1a01002 	mov	r1, r2
 c101b38:	e1a02003 	mov	r2, r3
 c101b3c:	ebfffdc7 	bl	c101260 <lcd_putpixel>
    			lcd_putpixel(2*(x+col) - x, 2*(y+row) - y + 1, color );
 c101b40:	e15b21b6 	ldrh	r2, [fp, #-22]	; 0xffffffea
 c101b44:	e55b300e 	ldrb	r3, [fp, #-14]
 c101b48:	e0823003 	add	r3, r2, r3
 c101b4c:	e1a03803 	lsl	r3, r3, #16
 c101b50:	e1a03823 	lsr	r3, r3, #16
 c101b54:	e1a03083 	lsl	r3, r3, #1
 c101b58:	e1a03803 	lsl	r3, r3, #16
 c101b5c:	e1a02823 	lsr	r2, r3, #16
 c101b60:	e15b31b6 	ldrh	r3, [fp, #-22]	; 0xffffffea
 c101b64:	e0633002 	rsb	r3, r3, r2
 c101b68:	e1a03803 	lsl	r3, r3, #16
 c101b6c:	e1a01823 	lsr	r1, r3, #16
 c101b70:	e15b21b8 	ldrh	r2, [fp, #-24]	; 0xffffffe8
 c101b74:	e55b300d 	ldrb	r3, [fp, #-13]
 c101b78:	e0823003 	add	r3, r2, r3
 c101b7c:	e1a03803 	lsl	r3, r3, #16
 c101b80:	e1a03823 	lsr	r3, r3, #16
 c101b84:	e1a03083 	lsl	r3, r3, #1
 c101b88:	e1a03803 	lsl	r3, r3, #16
 c101b8c:	e1a02823 	lsr	r2, r3, #16
 c101b90:	e15b31b8 	ldrh	r3, [fp, #-24]	; 0xffffffe8
 c101b94:	e0633002 	rsb	r3, r3, r2
 c101b98:	e1a03803 	lsl	r3, r3, #16
 c101b9c:	e1a03823 	lsr	r3, r3, #16
 c101ba0:	e2833001 	add	r3, r3, #1
 c101ba4:	e1a03803 	lsl	r3, r3, #16
 c101ba8:	e1a02823 	lsr	r2, r3, #16
 c101bac:	e55b3019 	ldrb	r3, [fp, #-25]	; 0xffffffe7
 c101bb0:	e1a00001 	mov	r0, r1
 c101bb4:	e1a01002 	mov	r1, r2
 c101bb8:	e1a02003 	mov	r2, r3
 c101bbc:	ebfffda7 	bl	c101260 <lcd_putpixel>
    			lcd_putpixel(2*(x+col) - x - 1, 2*(y+row) - y + 1, color );
 c101bc0:	e15b21b6 	ldrh	r2, [fp, #-22]	; 0xffffffea
 c101bc4:	e55b300e 	ldrb	r3, [fp, #-14]
 c101bc8:	e0823003 	add	r3, r2, r3
 c101bcc:	e1a03803 	lsl	r3, r3, #16
 c101bd0:	e1a03823 	lsr	r3, r3, #16
 c101bd4:	e1a03083 	lsl	r3, r3, #1
 c101bd8:	e1a03803 	lsl	r3, r3, #16
 c101bdc:	e1a02823 	lsr	r2, r3, #16
 c101be0:	e15b31b6 	ldrh	r3, [fp, #-22]	; 0xffffffea
 c101be4:	e0633002 	rsb	r3, r3, r2
 c101be8:	e1a03803 	lsl	r3, r3, #16
 c101bec:	e1a03823 	lsr	r3, r3, #16
 c101bf0:	e2433001 	sub	r3, r3, #1
 c101bf4:	e1a03803 	lsl	r3, r3, #16
 c101bf8:	e1a01823 	lsr	r1, r3, #16
 c101bfc:	e15b21b8 	ldrh	r2, [fp, #-24]	; 0xffffffe8
 c101c00:	e55b300d 	ldrb	r3, [fp, #-13]
 c101c04:	e0823003 	add	r3, r2, r3
 c101c08:	e1a03803 	lsl	r3, r3, #16
 c101c0c:	e1a03823 	lsr	r3, r3, #16
 c101c10:	e1a03083 	lsl	r3, r3, #1
 c101c14:	e1a03803 	lsl	r3, r3, #16
 c101c18:	e1a02823 	lsr	r2, r3, #16
 c101c1c:	e15b31b8 	ldrh	r3, [fp, #-24]	; 0xffffffe8
 c101c20:	e0633002 	rsb	r3, r3, r2
 c101c24:	e1a03803 	lsl	r3, r3, #16
 c101c28:	e1a03823 	lsr	r3, r3, #16
 c101c2c:	e2833001 	add	r3, r3, #1
 c101c30:	e1a03803 	lsl	r3, r3, #16
 c101c34:	e1a02823 	lsr	r2, r3, #16
 c101c38:	e55b3019 	ldrb	r3, [fp, #-25]	; 0xffffffe7
 c101c3c:	e1a00001 	mov	r0, r1
 c101c40:	e1a01002 	mov	r1, r2
 c101c44:	e1a02003 	mov	r2, r3
 c101c48:	ebfffd84 	bl	c101260 <lcd_putpixel>
 c101c4c:	ea00007b 	b	c101e40 <lcd_putchar_x2+0x470>
            }
            else{
            	lcd_putpixel(2*(x+col) - x, 2*(y+row) - y, WHITE );
 c101c50:	e15b21b6 	ldrh	r2, [fp, #-22]	; 0xffffffea
 c101c54:	e55b300e 	ldrb	r3, [fp, #-14]
 c101c58:	e0823003 	add	r3, r2, r3
 c101c5c:	e1a03803 	lsl	r3, r3, #16
 c101c60:	e1a03823 	lsr	r3, r3, #16
 c101c64:	e1a03083 	lsl	r3, r3, #1
 c101c68:	e1a03803 	lsl	r3, r3, #16
 c101c6c:	e1a02823 	lsr	r2, r3, #16
 c101c70:	e15b31b6 	ldrh	r3, [fp, #-22]	; 0xffffffea
 c101c74:	e0633002 	rsb	r3, r3, r2
 c101c78:	e1a03803 	lsl	r3, r3, #16
 c101c7c:	e1a02823 	lsr	r2, r3, #16
 c101c80:	e15b11b8 	ldrh	r1, [fp, #-24]	; 0xffffffe8
 c101c84:	e55b300d 	ldrb	r3, [fp, #-13]
 c101c88:	e0813003 	add	r3, r1, r3
 c101c8c:	e1a03803 	lsl	r3, r3, #16
 c101c90:	e1a03823 	lsr	r3, r3, #16
 c101c94:	e1a03083 	lsl	r3, r3, #1
 c101c98:	e1a03803 	lsl	r3, r3, #16
 c101c9c:	e1a01823 	lsr	r1, r3, #16
 c101ca0:	e15b31b8 	ldrh	r3, [fp, #-24]	; 0xffffffe8
 c101ca4:	e0633001 	rsb	r3, r3, r1
 c101ca8:	e1a03803 	lsl	r3, r3, #16
 c101cac:	e1a03823 	lsr	r3, r3, #16
 c101cb0:	e1a00002 	mov	r0, r2
 c101cb4:	e1a01003 	mov	r1, r3
 c101cb8:	e3a02000 	mov	r2, #0
 c101cbc:	ebfffd67 	bl	c101260 <lcd_putpixel>
    			lcd_putpixel(2*(x+col) - x - 1, 2*(y+row) - y, WHITE );
 c101cc0:	e15b21b6 	ldrh	r2, [fp, #-22]	; 0xffffffea
 c101cc4:	e55b300e 	ldrb	r3, [fp, #-14]
 c101cc8:	e0823003 	add	r3, r2, r3
 c101ccc:	e1a03803 	lsl	r3, r3, #16
 c101cd0:	e1a03823 	lsr	r3, r3, #16
 c101cd4:	e1a03083 	lsl	r3, r3, #1
 c101cd8:	e1a03803 	lsl	r3, r3, #16
 c101cdc:	e1a02823 	lsr	r2, r3, #16
 c101ce0:	e15b31b6 	ldrh	r3, [fp, #-22]	; 0xffffffea
 c101ce4:	e0633002 	rsb	r3, r3, r2
 c101ce8:	e1a03803 	lsl	r3, r3, #16
 c101cec:	e1a03823 	lsr	r3, r3, #16
 c101cf0:	e2433001 	sub	r3, r3, #1
 c101cf4:	e1a03803 	lsl	r3, r3, #16
 c101cf8:	e1a02823 	lsr	r2, r3, #16
 c101cfc:	e15b11b8 	ldrh	r1, [fp, #-24]	; 0xffffffe8
 c101d00:	e55b300d 	ldrb	r3, [fp, #-13]
 c101d04:	e0813003 	add	r3, r1, r3
 c101d08:	e1a03803 	lsl	r3, r3, #16
 c101d0c:	e1a03823 	lsr	r3, r3, #16
 c101d10:	e1a03083 	lsl	r3, r3, #1
 c101d14:	e1a03803 	lsl	r3, r3, #16
 c101d18:	e1a01823 	lsr	r1, r3, #16
 c101d1c:	e15b31b8 	ldrh	r3, [fp, #-24]	; 0xffffffe8
 c101d20:	e0633001 	rsb	r3, r3, r1
 c101d24:	e1a03803 	lsl	r3, r3, #16
 c101d28:	e1a03823 	lsr	r3, r3, #16
 c101d2c:	e1a00002 	mov	r0, r2
 c101d30:	e1a01003 	mov	r1, r3
 c101d34:	e3a02000 	mov	r2, #0
 c101d38:	ebfffd48 	bl	c101260 <lcd_putpixel>
    			lcd_putpixel(2*(x+col) - x, 2*(y+row) - y  + 1, WHITE );
 c101d3c:	e15b21b6 	ldrh	r2, [fp, #-22]	; 0xffffffea
 c101d40:	e55b300e 	ldrb	r3, [fp, #-14]
 c101d44:	e0823003 	add	r3, r2, r3
 c101d48:	e1a03803 	lsl	r3, r3, #16
 c101d4c:	e1a03823 	lsr	r3, r3, #16
 c101d50:	e1a03083 	lsl	r3, r3, #1
 c101d54:	e1a03803 	lsl	r3, r3, #16
 c101d58:	e1a02823 	lsr	r2, r3, #16
 c101d5c:	e15b31b6 	ldrh	r3, [fp, #-22]	; 0xffffffea
 c101d60:	e0633002 	rsb	r3, r3, r2
 c101d64:	e1a03803 	lsl	r3, r3, #16
 c101d68:	e1a02823 	lsr	r2, r3, #16
 c101d6c:	e15b11b8 	ldrh	r1, [fp, #-24]	; 0xffffffe8
 c101d70:	e55b300d 	ldrb	r3, [fp, #-13]
 c101d74:	e0813003 	add	r3, r1, r3
 c101d78:	e1a03803 	lsl	r3, r3, #16
 c101d7c:	e1a03823 	lsr	r3, r3, #16
 c101d80:	e1a03083 	lsl	r3, r3, #1
 c101d84:	e1a03803 	lsl	r3, r3, #16
 c101d88:	e1a01823 	lsr	r1, r3, #16
 c101d8c:	e15b31b8 	ldrh	r3, [fp, #-24]	; 0xffffffe8
 c101d90:	e0633001 	rsb	r3, r3, r1
 c101d94:	e1a03803 	lsl	r3, r3, #16
 c101d98:	e1a03823 	lsr	r3, r3, #16
 c101d9c:	e2833001 	add	r3, r3, #1
 c101da0:	e1a03803 	lsl	r3, r3, #16
 c101da4:	e1a03823 	lsr	r3, r3, #16
 c101da8:	e1a00002 	mov	r0, r2
 c101dac:	e1a01003 	mov	r1, r3
 c101db0:	e3a02000 	mov	r2, #0
 c101db4:	ebfffd29 	bl	c101260 <lcd_putpixel>
    			lcd_putpixel(2*(x+col) - x - 1, 2*(y+row) - y + 1, WHITE );
 c101db8:	e15b21b6 	ldrh	r2, [fp, #-22]	; 0xffffffea
 c101dbc:	e55b300e 	ldrb	r3, [fp, #-14]
 c101dc0:	e0823003 	add	r3, r2, r3
 c101dc4:	e1a03803 	lsl	r3, r3, #16
 c101dc8:	e1a03823 	lsr	r3, r3, #16
 c101dcc:	e1a03083 	lsl	r3, r3, #1
 c101dd0:	e1a03803 	lsl	r3, r3, #16
 c101dd4:	e1a02823 	lsr	r2, r3, #16
 c101dd8:	e15b31b6 	ldrh	r3, [fp, #-22]	; 0xffffffea
 c101ddc:	e0633002 	rsb	r3, r3, r2
 c101de0:	e1a03803 	lsl	r3, r3, #16
 c101de4:	e1a03823 	lsr	r3, r3, #16
 c101de8:	e2433001 	sub	r3, r3, #1
 c101dec:	e1a03803 	lsl	r3, r3, #16
 c101df0:	e1a02823 	lsr	r2, r3, #16
 c101df4:	e15b11b8 	ldrh	r1, [fp, #-24]	; 0xffffffe8
 c101df8:	e55b300d 	ldrb	r3, [fp, #-13]
 c101dfc:	e0813003 	add	r3, r1, r3
 c101e00:	e1a03803 	lsl	r3, r3, #16
 c101e04:	e1a03823 	lsr	r3, r3, #16
 c101e08:	e1a03083 	lsl	r3, r3, #1
 c101e0c:	e1a03803 	lsl	r3, r3, #16
 c101e10:	e1a01823 	lsr	r1, r3, #16
 c101e14:	e15b31b8 	ldrh	r3, [fp, #-24]	; 0xffffffe8
 c101e18:	e0633001 	rsb	r3, r3, r1
 c101e1c:	e1a03803 	lsl	r3, r3, #16
 c101e20:	e1a03823 	lsr	r3, r3, #16
 c101e24:	e2833001 	add	r3, r3, #1
 c101e28:	e1a03803 	lsl	r3, r3, #16
 c101e2c:	e1a03823 	lsr	r3, r3, #16
 c101e30:	e1a00002 	mov	r0, r2
 c101e34:	e1a01003 	mov	r1, r3
 c101e38:	e3a02000 	mov	r2, #0
 c101e3c:	ebfffd07 	bl	c101260 <lcd_putpixel>
    uint8 row, col;
    uint8 *bitmap;

    bitmap = font + ch*16;
    for( row=0; row<16; row++ ){
        for( col=0; col<8; col++ ){
 c101e40:	e55b300e 	ldrb	r3, [fp, #-14]
 c101e44:	e2833001 	add	r3, r3, #1
 c101e48:	e54b300e 	strb	r3, [fp, #-14]
 c101e4c:	e55b300e 	ldrb	r3, [fp, #-14]
 c101e50:	e3530007 	cmp	r3, #7
 c101e54:	9afffef1 	bls	c101a20 <lcd_putchar_x2+0x50>
{
    uint8 row, col;
    uint8 *bitmap;

    bitmap = font + ch*16;
    for( row=0; row<16; row++ ){
 c101e58:	e55b300d 	ldrb	r3, [fp, #-13]
 c101e5c:	e2833001 	add	r3, r3, #1
 c101e60:	e54b300d 	strb	r3, [fp, #-13]
 c101e64:	e55b300d 	ldrb	r3, [fp, #-13]
 c101e68:	e353000f 	cmp	r3, #15
 c101e6c:	9afffee8 	bls	c101a14 <lcd_putchar_x2+0x44>
                        	lcd_putpixel(2*(x+col), 2*(y+row) - y + 1, WHITE );
                        	lcd_putpixel(2*(x+col) - 1, 2*(y+row) - y + 1, WHITE );
                        }*/
        }
    }
}
 c101e70:	e24bd00c 	sub	sp, fp, #12
 c101e74:	e89d6800 	ldm	sp, {fp, sp, lr}
 c101e78:	e12fff1e 	bx	lr
 c101e7c:	0c1061e8 	.word	0x0c1061e8

0c101e80 <lcd_puts_x2>:

void lcd_puts_x2( uint16 x, uint16 y, uint8 color, char *s )
{
 c101e80:	e1a0c00d 	mov	ip, sp
 c101e84:	e92dd800 	push	{fp, ip, lr, pc}
 c101e88:	e24cb004 	sub	fp, ip, #4
 c101e8c:	e24dd010 	sub	sp, sp, #16
 c101e90:	e50b3018 	str	r3, [fp, #-24]	; 0xffffffe8
 c101e94:	e14b00be 	strh	r0, [fp, #-14]
 c101e98:	e14b11b0 	strh	r1, [fp, #-16]
 c101e9c:	e1a03002 	mov	r3, r2
 c101ea0:	e54b3011 	strb	r3, [fp, #-17]	; 0xffffffef
	while (*s){
 c101ea4:	ea00000b 	b	c101ed8 <lcd_puts_x2+0x58>
	    	lcd_putchar_x2(x, y, color, *s);
 c101ea8:	e51b3018 	ldr	r3, [fp, #-24]	; 0xffffffe8
 c101eac:	e5d33000 	ldrb	r3, [r3]
 c101eb0:	e15b00be 	ldrh	r0, [fp, #-14]
 c101eb4:	e15b11b0 	ldrh	r1, [fp, #-16]
 c101eb8:	e55b2011 	ldrb	r2, [fp, #-17]	; 0xffffffef
 c101ebc:	ebfffec3 	bl	c1019d0 <lcd_putchar_x2>
	    	*++s;
 c101ec0:	e51b3018 	ldr	r3, [fp, #-24]	; 0xffffffe8
 c101ec4:	e2833001 	add	r3, r3, #1
 c101ec8:	e50b3018 	str	r3, [fp, #-24]	; 0xffffffe8
	    	x += 16;
 c101ecc:	e15b30be 	ldrh	r3, [fp, #-14]
 c101ed0:	e2833010 	add	r3, r3, #16
 c101ed4:	e14b30be 	strh	r3, [fp, #-14]
    }
}

void lcd_puts_x2( uint16 x, uint16 y, uint8 color, char *s )
{
	while (*s){
 c101ed8:	e51b3018 	ldr	r3, [fp, #-24]	; 0xffffffe8
 c101edc:	e5d33000 	ldrb	r3, [r3]
 c101ee0:	e3530000 	cmp	r3, #0
 c101ee4:	1affffef 	bne	c101ea8 <lcd_puts_x2+0x28>
	    	lcd_putchar_x2(x, y, color, *s);
	    	*++s;
	    	x += 16;
	    }
}
 c101ee8:	e24bd00c 	sub	sp, fp, #12
 c101eec:	e89d6800 	ldm	sp, {fp, sp, lr}
 c101ef0:	e12fff1e 	bx	lr

0c101ef4 <lcd_putint_x2>:

void lcd_putint_x2( uint16 x, uint16 y, uint8 color, int32 i )
{
 c101ef4:	e1a0c00d 	mov	ip, sp
 c101ef8:	e92dd800 	push	{fp, ip, lr, pc}
 c101efc:	e24cb004 	sub	fp, ip, #4
 c101f00:	e24dd028 	sub	sp, sp, #40	; 0x28
 c101f04:	e50b3030 	str	r3, [fp, #-48]	; 0xffffffd0
 c101f08:	e14b02b6 	strh	r0, [fp, #-38]	; 0xffffffda
 c101f0c:	e14b12b8 	strh	r1, [fp, #-40]	; 0xffffffd8
 c101f10:	e1a03002 	mov	r3, r2
 c101f14:	e54b3029 	strb	r3, [fp, #-41]	; 0xffffffd7
    char buf[16 + 1];
    char *p = buf + 16;
 c101f18:	e24b3024 	sub	r3, fp, #36	; 0x24
 c101f1c:	e2833010 	add	r3, r3, #16
 c101f20:	e50b3010 	str	r3, [fp, #-16]
    uint8 c;
    char negativo = 0;
 c101f24:	e3a03000 	mov	r3, #0
 c101f28:	e54b3011 	strb	r3, [fp, #-17]	; 0xffffffef

    *p = '\0';
 c101f2c:	e51b3010 	ldr	r3, [fp, #-16]
 c101f30:	e3a02000 	mov	r2, #0
 c101f34:	e5c32000 	strb	r2, [r3]

    if (i < 0){
 c101f38:	e51b3030 	ldr	r3, [fp, #-48]	; 0xffffffd0
 c101f3c:	e3530000 	cmp	r3, #0
 c101f40:	aa000004 	bge	c101f58 <lcd_putint_x2+0x64>
        negativo = '1';
 c101f44:	e3a03031 	mov	r3, #49	; 0x31
 c101f48:	e54b3011 	strb	r3, [fp, #-17]	; 0xffffffef
        i *= (-1);
 c101f4c:	e51b3030 	ldr	r3, [fp, #-48]	; 0xffffffd0
 c101f50:	e2633000 	rsb	r3, r3, #0
 c101f54:	e50b3030 	str	r3, [fp, #-48]	; 0xffffffd0
    }

    do {
        c = i % 10;
 c101f58:	e51b1030 	ldr	r1, [fp, #-48]	; 0xffffffd0
 c101f5c:	e59f30c0 	ldr	r3, [pc, #192]	; c102024 <lcd_putint_x2+0x130>
 c101f60:	e0c32391 	smull	r2, r3, r1, r3
 c101f64:	e1a02143 	asr	r2, r3, #2
 c101f68:	e1a03fc1 	asr	r3, r1, #31
 c101f6c:	e0632002 	rsb	r2, r3, r2
 c101f70:	e1a03002 	mov	r3, r2
 c101f74:	e1a03103 	lsl	r3, r3, #2
 c101f78:	e0833002 	add	r3, r3, r2
 c101f7c:	e1a03083 	lsl	r3, r3, #1
 c101f80:	e0632001 	rsb	r2, r3, r1
 c101f84:	e1a03002 	mov	r3, r2
 c101f88:	e54b3012 	strb	r3, [fp, #-18]	; 0xffffffee
        *--p = '0' + c;
 c101f8c:	e51b3010 	ldr	r3, [fp, #-16]
 c101f90:	e2433001 	sub	r3, r3, #1
 c101f94:	e50b3010 	str	r3, [fp, #-16]
 c101f98:	e55b3012 	ldrb	r3, [fp, #-18]	; 0xffffffee
 c101f9c:	e2833030 	add	r3, r3, #48	; 0x30
 c101fa0:	e20320ff 	and	r2, r3, #255	; 0xff
 c101fa4:	e51b3010 	ldr	r3, [fp, #-16]
 c101fa8:	e5c32000 	strb	r2, [r3]
        i /= 10;
 c101fac:	e51b3030 	ldr	r3, [fp, #-48]	; 0xffffffd0
 c101fb0:	e59f206c 	ldr	r2, [pc, #108]	; c102024 <lcd_putint_x2+0x130>
 c101fb4:	e0c21293 	smull	r1, r2, r3, r2
 c101fb8:	e1a02142 	asr	r2, r2, #2
 c101fbc:	e1a03fc3 	asr	r3, r3, #31
 c101fc0:	e0633002 	rsb	r3, r3, r2
 c101fc4:	e50b3030 	str	r3, [fp, #-48]	; 0xffffffd0
    } while( i );
 c101fc8:	e51b3030 	ldr	r3, [fp, #-48]	; 0xffffffd0
 c101fcc:	e3530000 	cmp	r3, #0
 c101fd0:	1affffe0 	bne	c101f58 <lcd_putint_x2+0x64>

    if (negativo){ *--p = '-';}
 c101fd4:	e55b3011 	ldrb	r3, [fp, #-17]	; 0xffffffef
 c101fd8:	e3530000 	cmp	r3, #0
 c101fdc:	0a000005 	beq	c101ff8 <lcd_putint_x2+0x104>
 c101fe0:	e51b3010 	ldr	r3, [fp, #-16]
 c101fe4:	e2433001 	sub	r3, r3, #1
 c101fe8:	e50b3010 	str	r3, [fp, #-16]
 c101fec:	e51b3010 	ldr	r3, [fp, #-16]
 c101ff0:	e3a0202d 	mov	r2, #45	; 0x2d
 c101ff4:	e5c32000 	strb	r2, [r3]

    lcd_puts_x2(x, y, color, p);
 c101ff8:	e15b12b6 	ldrh	r1, [fp, #-38]	; 0xffffffda
 c101ffc:	e15b22b8 	ldrh	r2, [fp, #-40]	; 0xffffffd8
 c102000:	e55b3029 	ldrb	r3, [fp, #-41]	; 0xffffffd7
 c102004:	e1a00001 	mov	r0, r1
 c102008:	e1a01002 	mov	r1, r2
 c10200c:	e1a02003 	mov	r2, r3
 c102010:	e51b3010 	ldr	r3, [fp, #-16]
 c102014:	ebffff99 	bl	c101e80 <lcd_puts_x2>
}
 c102018:	e24bd00c 	sub	sp, fp, #12
 c10201c:	e89d6800 	ldm	sp, {fp, sp, lr}
 c102020:	e12fff1e 	bx	lr
 c102024:	66666667 	.word	0x66666667

0c102028 <lcd_puthex_x2>:

void lcd_puthex_x2( uint16 x, uint16 y, uint8 color, uint32 i )
{
 c102028:	e1a0c00d 	mov	ip, sp
 c10202c:	e92dd800 	push	{fp, ip, lr, pc}
 c102030:	e24cb004 	sub	fp, ip, #4
 c102034:	e24dd020 	sub	sp, sp, #32
 c102038:	e50b3028 	str	r3, [fp, #-40]	; 0xffffffd8
 c10203c:	e14b01be 	strh	r0, [fp, #-30]	; 0xffffffe2
 c102040:	e14b12b0 	strh	r1, [fp, #-32]	; 0xffffffe0
 c102044:	e1a03002 	mov	r3, r2
 c102048:	e54b3021 	strb	r3, [fp, #-33]	; 0xffffffdf
    char buf[8 + 1];
    char *p = buf + 8;
 c10204c:	e24b301c 	sub	r3, fp, #28
 c102050:	e2833008 	add	r3, r3, #8
 c102054:	e50b3010 	str	r3, [fp, #-16]
    uint8 c;

    *p = '\0';
 c102058:	e51b3010 	ldr	r3, [fp, #-16]
 c10205c:	e3a02000 	mov	r2, #0
 c102060:	e5c32000 	strb	r2, [r3]

    do {
    	c = i & 0xF;
 c102064:	e51b3028 	ldr	r3, [fp, #-40]	; 0xffffffd8
 c102068:	e20330ff 	and	r3, r3, #255	; 0xff
 c10206c:	e203300f 	and	r3, r3, #15
 c102070:	e54b3011 	strb	r3, [fp, #-17]	; 0xffffffef
    	if  (c < 10){
 c102074:	e55b3011 	ldrb	r3, [fp, #-17]	; 0xffffffef
 c102078:	e3530009 	cmp	r3, #9
 c10207c:	8a000008 	bhi	c1020a4 <lcd_puthex_x2+0x7c>
    		*--p = '0' + c;
 c102080:	e51b3010 	ldr	r3, [fp, #-16]
 c102084:	e2433001 	sub	r3, r3, #1
 c102088:	e50b3010 	str	r3, [fp, #-16]
 c10208c:	e55b3011 	ldrb	r3, [fp, #-17]	; 0xffffffef
 c102090:	e2833030 	add	r3, r3, #48	; 0x30
 c102094:	e20320ff 	and	r2, r3, #255	; 0xff
 c102098:	e51b3010 	ldr	r3, [fp, #-16]
 c10209c:	e5c32000 	strb	r2, [r3]
 c1020a0:	ea000007 	b	c1020c4 <lcd_puthex_x2+0x9c>
    	}
    	else {
    		*--p = 'a' + c - 10;
 c1020a4:	e51b3010 	ldr	r3, [fp, #-16]
 c1020a8:	e2433001 	sub	r3, r3, #1
 c1020ac:	e50b3010 	str	r3, [fp, #-16]
 c1020b0:	e55b3011 	ldrb	r3, [fp, #-17]	; 0xffffffef
 c1020b4:	e2833057 	add	r3, r3, #87	; 0x57
 c1020b8:	e20320ff 	and	r2, r3, #255	; 0xff
 c1020bc:	e51b3010 	ldr	r3, [fp, #-16]
 c1020c0:	e5c32000 	strb	r2, [r3]
    	}
    	i = i >> 4;
 c1020c4:	e51b3028 	ldr	r3, [fp, #-40]	; 0xffffffd8
 c1020c8:	e1a03223 	lsr	r3, r3, #4
 c1020cc:	e50b3028 	str	r3, [fp, #-40]	; 0xffffffd8
    }while(i);
 c1020d0:	e51b3028 	ldr	r3, [fp, #-40]	; 0xffffffd8
 c1020d4:	e3530000 	cmp	r3, #0
 c1020d8:	1affffe1 	bne	c102064 <lcd_puthex_x2+0x3c>

    lcd_puts_x2(x, y, color, p);
 c1020dc:	e15b11be 	ldrh	r1, [fp, #-30]	; 0xffffffe2
 c1020e0:	e15b22b0 	ldrh	r2, [fp, #-32]	; 0xffffffe0
 c1020e4:	e55b3021 	ldrb	r3, [fp, #-33]	; 0xffffffdf
 c1020e8:	e1a00001 	mov	r0, r1
 c1020ec:	e1a01002 	mov	r1, r2
 c1020f0:	e1a02003 	mov	r2, r3
 c1020f4:	e51b3010 	ldr	r3, [fp, #-16]
 c1020f8:	ebffff60 	bl	c101e80 <lcd_puts_x2>
}
 c1020fc:	e24bd00c 	sub	sp, fp, #12
 c102100:	e89d6800 	ldm	sp, {fp, sp, lr}
 c102104:	e12fff1e 	bx	lr

0c102108 <lcd_putWallpaper>:

void lcd_putWallpaper( uint8 *bmp )
{
 c102108:	e1a0c00d 	mov	ip, sp
 c10210c:	e92dd800 	push	{fp, ip, lr, pc}
 c102110:	e24cb004 	sub	fp, ip, #4
 c102114:	e24dd018 	sub	sp, sp, #24
 c102118:	e50b0020 	str	r0, [fp, #-32]	; 0xffffffe0
    uint32 headerSize;

    uint16 x, ySrc, yDst;
    uint16 offsetSrc, offsetDst;

    headerSize = bmp[10] + (bmp[11] << 8) + (bmp[12] << 16) + (bmp[13] << 24);
 c10211c:	e51b3020 	ldr	r3, [fp, #-32]	; 0xffffffe0
 c102120:	e283300a 	add	r3, r3, #10
 c102124:	e5d33000 	ldrb	r3, [r3]
 c102128:	e1a02003 	mov	r2, r3
 c10212c:	e51b3020 	ldr	r3, [fp, #-32]	; 0xffffffe0
 c102130:	e283300b 	add	r3, r3, #11
 c102134:	e5d33000 	ldrb	r3, [r3]
 c102138:	e1a03403 	lsl	r3, r3, #8
 c10213c:	e0822003 	add	r2, r2, r3
 c102140:	e51b3020 	ldr	r3, [fp, #-32]	; 0xffffffe0
 c102144:	e283300c 	add	r3, r3, #12
 c102148:	e5d33000 	ldrb	r3, [r3]
 c10214c:	e1a03803 	lsl	r3, r3, #16
 c102150:	e0822003 	add	r2, r2, r3
 c102154:	e51b3020 	ldr	r3, [fp, #-32]	; 0xffffffe0
 c102158:	e283300d 	add	r3, r3, #13
 c10215c:	e5d33000 	ldrb	r3, [r3]
 c102160:	e1a03c03 	lsl	r3, r3, #24
 c102164:	e0823003 	add	r3, r2, r3
 c102168:	e50b3018 	str	r3, [fp, #-24]	; 0xffffffe8

    bmp = bmp + headerSize;
 c10216c:	e51b2020 	ldr	r2, [fp, #-32]	; 0xffffffe0
 c102170:	e51b3018 	ldr	r3, [fp, #-24]	; 0xffffffe8
 c102174:	e0823003 	add	r3, r2, r3
 c102178:	e50b3020 	str	r3, [fp, #-32]	; 0xffffffe0
    
    for( ySrc=0, yDst=LCD_HEIGHT-1; ySrc<LCD_HEIGHT; ySrc++, yDst-- )                                                                       
 c10217c:	e3a03000 	mov	r3, #0
 c102180:	e14b31b0 	strh	r3, [fp, #-16]
 c102184:	e3a030ef 	mov	r3, #239	; 0xef
 c102188:	e14b31b2 	strh	r3, [fp, #-18]	; 0xffffffee
 c10218c:	ea00002d 	b	c102248 <lcd_putWallpaper+0x140>
    {
        offsetDst = yDst*LCD_WIDTH/2;
 c102190:	e15b21b2 	ldrh	r2, [fp, #-18]	; 0xffffffee
 c102194:	e1a03002 	mov	r3, r2
 c102198:	e1a03103 	lsl	r3, r3, #2
 c10219c:	e0833002 	add	r3, r3, r2
 c1021a0:	e1a03303 	lsl	r3, r3, #6
 c1021a4:	e1a02fa3 	lsr	r2, r3, #31
 c1021a8:	e0823003 	add	r3, r2, r3
 c1021ac:	e1a030c3 	asr	r3, r3, #1
 c1021b0:	e14b31ba 	strh	r3, [fp, #-26]	; 0xffffffe6
        offsetSrc = ySrc*LCD_WIDTH/2;
 c1021b4:	e15b21b0 	ldrh	r2, [fp, #-16]
 c1021b8:	e1a03002 	mov	r3, r2
 c1021bc:	e1a03103 	lsl	r3, r3, #2
 c1021c0:	e0833002 	add	r3, r3, r2
 c1021c4:	e1a03303 	lsl	r3, r3, #6
 c1021c8:	e1a02fa3 	lsr	r2, r3, #31
 c1021cc:	e0823003 	add	r3, r2, r3
 c1021d0:	e1a030c3 	asr	r3, r3, #1
 c1021d4:	e14b31bc 	strh	r3, [fp, #-28]	; 0xffffffe4
        for( x=0; x<LCD_WIDTH/2; x++ )
 c1021d8:	e3a03000 	mov	r3, #0
 c1021dc:	e14b30be 	strh	r3, [fp, #-14]
 c1021e0:	ea00000f 	b	c102224 <lcd_putWallpaper+0x11c>
            lcd_buffer[offsetDst+x] = ~bmp[offsetSrc+x];
 c1021e4:	e15b21ba 	ldrh	r2, [fp, #-26]	; 0xffffffe6
 c1021e8:	e15b30be 	ldrh	r3, [fp, #-14]
 c1021ec:	e0823003 	add	r3, r2, r3
 c1021f0:	e15b11bc 	ldrh	r1, [fp, #-28]	; 0xffffffe4
 c1021f4:	e15b20be 	ldrh	r2, [fp, #-14]
 c1021f8:	e0812002 	add	r2, r1, r2
 c1021fc:	e51b1020 	ldr	r1, [fp, #-32]	; 0xffffffe0
 c102200:	e0812002 	add	r2, r1, r2
 c102204:	e5d22000 	ldrb	r2, [r2]
 c102208:	e1e02002 	mvn	r2, r2
 c10220c:	e20210ff 	and	r1, r2, #255	; 0xff
 c102210:	e59f2048 	ldr	r2, [pc, #72]	; c102260 <lcd_putWallpaper+0x158>
 c102214:	e7c21003 	strb	r1, [r2, r3]
    
    for( ySrc=0, yDst=LCD_HEIGHT-1; ySrc<LCD_HEIGHT; ySrc++, yDst-- )                                                                       
    {
        offsetDst = yDst*LCD_WIDTH/2;
        offsetSrc = ySrc*LCD_WIDTH/2;
        for( x=0; x<LCD_WIDTH/2; x++ )
 c102218:	e15b30be 	ldrh	r3, [fp, #-14]
 c10221c:	e2833001 	add	r3, r3, #1
 c102220:	e14b30be 	strh	r3, [fp, #-14]
 c102224:	e15b30be 	ldrh	r3, [fp, #-14]
 c102228:	e353009f 	cmp	r3, #159	; 0x9f
 c10222c:	9affffec 	bls	c1021e4 <lcd_putWallpaper+0xdc>

    headerSize = bmp[10] + (bmp[11] << 8) + (bmp[12] << 16) + (bmp[13] << 24);

    bmp = bmp + headerSize;
    
    for( ySrc=0, yDst=LCD_HEIGHT-1; ySrc<LCD_HEIGHT; ySrc++, yDst-- )                                                                       
 c102230:	e15b31b0 	ldrh	r3, [fp, #-16]
 c102234:	e2833001 	add	r3, r3, #1
 c102238:	e14b31b0 	strh	r3, [fp, #-16]
 c10223c:	e15b31b2 	ldrh	r3, [fp, #-18]	; 0xffffffee
 c102240:	e2433001 	sub	r3, r3, #1
 c102244:	e14b31b2 	strh	r3, [fp, #-18]	; 0xffffffee
 c102248:	e15b31b0 	ldrh	r3, [fp, #-16]
 c10224c:	e35300ef 	cmp	r3, #239	; 0xef
 c102250:	9affffce 	bls	c102190 <lcd_putWallpaper+0x88>
        offsetDst = yDst*LCD_WIDTH/2;
        offsetSrc = ySrc*LCD_WIDTH/2;
        for( x=0; x<LCD_WIDTH/2; x++ )
            lcd_buffer[offsetDst+x] = ~bmp[offsetSrc+x];
    }
}
 c102254:	e24bd00c 	sub	sp, fp, #12
 c102258:	e89d6800 	ldm	sp, {fp, sp, lr}
 c10225c:	e12fff1e 	bx	lr
 c102260:	0c1072b8 	.word	0x0c1072b8

0c102264 <leds_init>:
#include <s3c44b0x.h>
#include <leds.h>

void leds_init( void )
{
 c102264:	e1a0c00d 	mov	ip, sp
 c102268:	e92dd800 	push	{fp, ip, lr, pc}
 c10226c:	e24cb004 	sub	fp, ip, #4
	PDATB |= ( (1<<10) | (1<<9) );
 c102270:	e59f3018 	ldr	r3, [pc, #24]	; c102290 <leds_init+0x2c>
 c102274:	e59f2014 	ldr	r2, [pc, #20]	; c102290 <leds_init+0x2c>
 c102278:	e5922000 	ldr	r2, [r2]
 c10227c:	e3822c06 	orr	r2, r2, #1536	; 0x600
 c102280:	e5832000 	str	r2, [r3]
}
 c102284:	e24bd00c 	sub	sp, fp, #12
 c102288:	e89d6800 	ldm	sp, {fp, sp, lr}
 c10228c:	e12fff1e 	bx	lr
 c102290:	01d2000c 	.word	0x01d2000c

0c102294 <led_on>:

void led_on( uint8 led )
{
 c102294:	e1a0c00d 	mov	ip, sp
 c102298:	e92dd800 	push	{fp, ip, lr, pc}
 c10229c:	e24cb004 	sub	fp, ip, #4
 c1022a0:	e24dd008 	sub	sp, sp, #8
 c1022a4:	e1a03000 	mov	r3, r0
 c1022a8:	e54b300d 	strb	r3, [fp, #-13]
	if (led == RIGHT_LED){PDATB &= ~(1 << 10);}
 c1022ac:	e55b300d 	ldrb	r3, [fp, #-13]
 c1022b0:	e3530002 	cmp	r3, #2
 c1022b4:	1a000005 	bne	c1022d0 <led_on+0x3c>
 c1022b8:	e59f303c 	ldr	r3, [pc, #60]	; c1022fc <led_on+0x68>
 c1022bc:	e59f2038 	ldr	r2, [pc, #56]	; c1022fc <led_on+0x68>
 c1022c0:	e5922000 	ldr	r2, [r2]
 c1022c4:	e3c22b01 	bic	r2, r2, #1024	; 0x400
 c1022c8:	e5832000 	str	r2, [r3]
 c1022cc:	ea000007 	b	c1022f0 <led_on+0x5c>
	else if (led == LEFT_LED){PDATB &= ~(1 << 9);}
 c1022d0:	e55b300d 	ldrb	r3, [fp, #-13]
 c1022d4:	e3530001 	cmp	r3, #1
 c1022d8:	1a000004 	bne	c1022f0 <led_on+0x5c>
 c1022dc:	e59f3018 	ldr	r3, [pc, #24]	; c1022fc <led_on+0x68>
 c1022e0:	e59f2014 	ldr	r2, [pc, #20]	; c1022fc <led_on+0x68>
 c1022e4:	e5922000 	ldr	r2, [r2]
 c1022e8:	e3c22c02 	bic	r2, r2, #512	; 0x200
 c1022ec:	e5832000 	str	r2, [r3]
}
 c1022f0:	e24bd00c 	sub	sp, fp, #12
 c1022f4:	e89d6800 	ldm	sp, {fp, sp, lr}
 c1022f8:	e12fff1e 	bx	lr
 c1022fc:	01d2000c 	.word	0x01d2000c

0c102300 <led_off>:

void led_off( uint8 led )
{
 c102300:	e1a0c00d 	mov	ip, sp
 c102304:	e92dd800 	push	{fp, ip, lr, pc}
 c102308:	e24cb004 	sub	fp, ip, #4
 c10230c:	e24dd008 	sub	sp, sp, #8
 c102310:	e1a03000 	mov	r3, r0
 c102314:	e54b300d 	strb	r3, [fp, #-13]
	if (led == RIGHT_LED){PDATB |= (1 << 10);}
 c102318:	e55b300d 	ldrb	r3, [fp, #-13]
 c10231c:	e3530002 	cmp	r3, #2
 c102320:	1a000005 	bne	c10233c <led_off+0x3c>
 c102324:	e59f303c 	ldr	r3, [pc, #60]	; c102368 <led_off+0x68>
 c102328:	e59f2038 	ldr	r2, [pc, #56]	; c102368 <led_off+0x68>
 c10232c:	e5922000 	ldr	r2, [r2]
 c102330:	e3822b01 	orr	r2, r2, #1024	; 0x400
 c102334:	e5832000 	str	r2, [r3]
 c102338:	ea000007 	b	c10235c <led_off+0x5c>
	else if (led == LEFT_LED){PDATB |= (1 << 9);}
 c10233c:	e55b300d 	ldrb	r3, [fp, #-13]
 c102340:	e3530001 	cmp	r3, #1
 c102344:	1a000004 	bne	c10235c <led_off+0x5c>
 c102348:	e59f3018 	ldr	r3, [pc, #24]	; c102368 <led_off+0x68>
 c10234c:	e59f2014 	ldr	r2, [pc, #20]	; c102368 <led_off+0x68>
 c102350:	e5922000 	ldr	r2, [r2]
 c102354:	e3822c02 	orr	r2, r2, #512	; 0x200
 c102358:	e5832000 	str	r2, [r3]
}
 c10235c:	e24bd00c 	sub	sp, fp, #12
 c102360:	e89d6800 	ldm	sp, {fp, sp, lr}
 c102364:	e12fff1e 	bx	lr
 c102368:	01d2000c 	.word	0x01d2000c

0c10236c <led_toggle>:

void led_toggle( uint8 led )
{
 c10236c:	e1a0c00d 	mov	ip, sp
 c102370:	e92dd800 	push	{fp, ip, lr, pc}
 c102374:	e24cb004 	sub	fp, ip, #4
 c102378:	e24dd008 	sub	sp, sp, #8
 c10237c:	e1a03000 	mov	r3, r0
 c102380:	e54b300d 	strb	r3, [fp, #-13]
	if (led == RIGHT_LED){PDATB ^= (1 << 10);}
 c102384:	e55b300d 	ldrb	r3, [fp, #-13]
 c102388:	e3530002 	cmp	r3, #2
 c10238c:	1a000005 	bne	c1023a8 <led_toggle+0x3c>
 c102390:	e59f303c 	ldr	r3, [pc, #60]	; c1023d4 <led_toggle+0x68>
 c102394:	e59f2038 	ldr	r2, [pc, #56]	; c1023d4 <led_toggle+0x68>
 c102398:	e5922000 	ldr	r2, [r2]
 c10239c:	e2222b01 	eor	r2, r2, #1024	; 0x400
 c1023a0:	e5832000 	str	r2, [r3]
 c1023a4:	ea000007 	b	c1023c8 <led_toggle+0x5c>
	else if (led == LEFT_LED){PDATB ^= (1 << 9);}
 c1023a8:	e55b300d 	ldrb	r3, [fp, #-13]
 c1023ac:	e3530001 	cmp	r3, #1
 c1023b0:	1a000004 	bne	c1023c8 <led_toggle+0x5c>
 c1023b4:	e59f3018 	ldr	r3, [pc, #24]	; c1023d4 <led_toggle+0x68>
 c1023b8:	e59f2014 	ldr	r2, [pc, #20]	; c1023d4 <led_toggle+0x68>
 c1023bc:	e5922000 	ldr	r2, [r2]
 c1023c0:	e2222c02 	eor	r2, r2, #512	; 0x200
 c1023c4:	e5832000 	str	r2, [r3]
}
 c1023c8:	e24bd00c 	sub	sp, fp, #12
 c1023cc:	e89d6800 	ldm	sp, {fp, sp, lr}
 c1023d0:	e12fff1e 	bx	lr
 c1023d4:	01d2000c 	.word	0x01d2000c

0c1023d8 <led_status>:

uint8 led_status( uint8 led )
{
 c1023d8:	e1a0c00d 	mov	ip, sp
 c1023dc:	e92dd800 	push	{fp, ip, lr, pc}
 c1023e0:	e24cb004 	sub	fp, ip, #4
 c1023e4:	e24dd008 	sub	sp, sp, #8
 c1023e8:	e1a03000 	mov	r3, r0
 c1023ec:	e54b300d 	strb	r3, [fp, #-13]
    if (led == RIGHT_LED && (PDATB & (1 << 10))){return 0;}
 c1023f0:	e55b300d 	ldrb	r3, [fp, #-13]
 c1023f4:	e3530002 	cmp	r3, #2
 c1023f8:	1a000006 	bne	c102418 <led_status+0x40>
 c1023fc:	e59f3050 	ldr	r3, [pc, #80]	; c102454 <led_status+0x7c>
 c102400:	e5933000 	ldr	r3, [r3]
 c102404:	e2033b01 	and	r3, r3, #1024	; 0x400
 c102408:	e3530000 	cmp	r3, #0
 c10240c:	0a000001 	beq	c102418 <led_status+0x40>
 c102410:	e3a03000 	mov	r3, #0
 c102414:	ea00000a 	b	c102444 <led_status+0x6c>
    else if (led == LEFT_LED && (PDATB & (1 << 9))){return 0;}
 c102418:	e55b300d 	ldrb	r3, [fp, #-13]
 c10241c:	e3530001 	cmp	r3, #1
 c102420:	1a000006 	bne	c102440 <led_status+0x68>
 c102424:	e59f3028 	ldr	r3, [pc, #40]	; c102454 <led_status+0x7c>
 c102428:	e5933000 	ldr	r3, [r3]
 c10242c:	e2033c02 	and	r3, r3, #512	; 0x200
 c102430:	e3530000 	cmp	r3, #0
 c102434:	0a000001 	beq	c102440 <led_status+0x68>
 c102438:	e3a03000 	mov	r3, #0
 c10243c:	ea000000 	b	c102444 <led_status+0x6c>
    else {return 1;}
 c102440:	e3a03001 	mov	r3, #1
}
 c102444:	e1a00003 	mov	r0, r3
 c102448:	e24bd00c 	sub	sp, fp, #12
 c10244c:	e89d6800 	ldm	sp, {fp, sp, lr}
 c102450:	e12fff1e 	bx	lr
 c102454:	01d2000c 	.word	0x01d2000c

0c102458 <pbs_init>:
#include <timers.h>

extern void isr_PB_dummy( void );

void pbs_init( void )
{
 c102458:	e1a0c00d 	mov	ip, sp
 c10245c:	e92dd800 	push	{fp, ip, lr, pc}
 c102460:	e24cb004 	sub	fp, ip, #4
    timers_init();
 c102464:	eb0006b0 	bl	c103f2c <timers_init>
}
 c102468:	e24bd00c 	sub	sp, fp, #12
 c10246c:	e89d6800 	ldm	sp, {fp, sp, lr}
 c102470:	e12fff1e 	bx	lr

0c102474 <pb_scan>:

uint8 pb_scan( void )
{
 c102474:	e1a0c00d 	mov	ip, sp
 c102478:	e92dd800 	push	{fp, ip, lr, pc}
 c10247c:	e24cb004 	sub	fp, ip, #4
    if((PB_LEFT & PDATG) == PB_UP)
 c102480:	e59f3044 	ldr	r3, [pc, #68]	; c1024cc <pb_scan+0x58>
 c102484:	e5933000 	ldr	r3, [r3]
 c102488:	e2033040 	and	r3, r3, #64	; 0x40
 c10248c:	e3530000 	cmp	r3, #0
 c102490:	1a000001 	bne	c10249c <pb_scan+0x28>
        return PB_LEFT;
 c102494:	e3a03040 	mov	r3, #64	; 0x40
 c102498:	ea000007 	b	c1024bc <pb_scan+0x48>
    else if((PB_RIGHT & PDATG) == PB_UP)
 c10249c:	e59f3028 	ldr	r3, [pc, #40]	; c1024cc <pb_scan+0x58>
 c1024a0:	e5933000 	ldr	r3, [r3]
 c1024a4:	e2033080 	and	r3, r3, #128	; 0x80
 c1024a8:	e3530000 	cmp	r3, #0
 c1024ac:	1a000001 	bne	c1024b8 <pb_scan+0x44>
        return PB_RIGHT;
 c1024b0:	e3a03080 	mov	r3, #128	; 0x80
 c1024b4:	ea000000 	b	c1024bc <pb_scan+0x48>
    else
        return PB_FAILURE;
 c1024b8:	e3a030ff 	mov	r3, #255	; 0xff
}
 c1024bc:	e1a00003 	mov	r0, r3
 c1024c0:	e24bd00c 	sub	sp, fp, #12
 c1024c4:	e89d6800 	ldm	sp, {fp, sp, lr}
 c1024c8:	e12fff1e 	bx	lr
 c1024cc:	01d20044 	.word	0x01d20044

0c1024d0 <pb_pressed>:

uint8 pb_pressed( void )
{
 c1024d0:	e1a0c00d 	mov	ip, sp
 c1024d4:	e92dd800 	push	{fp, ip, lr, pc}
 c1024d8:	e24cb004 	sub	fp, ip, #4
	if (((PDATG & PB_LEFT) == PB_UP) || ((PDATG & PB_RIGHT) == PB_UP)){
 c1024dc:	e59f303c 	ldr	r3, [pc, #60]	; c102520 <pb_pressed+0x50>
 c1024e0:	e5933000 	ldr	r3, [r3]
 c1024e4:	e2033040 	and	r3, r3, #64	; 0x40
 c1024e8:	e3530000 	cmp	r3, #0
 c1024ec:	0a000004 	beq	c102504 <pb_pressed+0x34>
 c1024f0:	e59f3028 	ldr	r3, [pc, #40]	; c102520 <pb_pressed+0x50>
 c1024f4:	e5933000 	ldr	r3, [r3]
 c1024f8:	e2033080 	and	r3, r3, #128	; 0x80
 c1024fc:	e3530000 	cmp	r3, #0
 c102500:	1a000001 	bne	c10250c <pb_pressed+0x3c>
		return '1';
 c102504:	e3a03031 	mov	r3, #49	; 0x31
 c102508:	ea000000 	b	c102510 <pb_pressed+0x40>
	}

	return 0;
 c10250c:	e3a03000 	mov	r3, #0
}
 c102510:	e1a00003 	mov	r0, r3
 c102514:	e24bd00c 	sub	sp, fp, #12
 c102518:	e89d6800 	ldm	sp, {fp, sp, lr}
 c10251c:	e12fff1e 	bx	lr
 c102520:	01d20044 	.word	0x01d20044

0c102524 <pb_getchar>:

uint8 pb_getchar( void )
{
 c102524:	e1a0c00d 	mov	ip, sp
 c102528:	e92dd800 	push	{fp, ip, lr, pc}
 c10252c:	e24cb004 	sub	fp, ip, #4
 c102530:	e24dd008 	sub	sp, sp, #8
	uint8 scancode;

	while(!pb_pressed());
 c102534:	e1a00000 	nop			; (mov r0, r0)
 c102538:	ebffffe4 	bl	c1024d0 <pb_pressed>
 c10253c:	e1a03000 	mov	r3, r0
 c102540:	e3530000 	cmp	r3, #0
 c102544:	0afffffb 	beq	c102538 <pb_getchar+0x14>

	sw_delay_ms(PB_KEYDOWN_DELAY);
 c102548:	e3a0001e 	mov	r0, #30
 c10254c:	eb000758 	bl	c1042b4 <sw_delay_ms>
	scancode = pb_scan();
 c102550:	ebffffc7 	bl	c102474 <pb_scan>
 c102554:	e1a03000 	mov	r3, r0
 c102558:	e54b300d 	strb	r3, [fp, #-13]

	while((PDATG & scancode) == 0){
 c10255c:	ea000001 	b	c102568 <pb_getchar+0x44>
		sw_delay_ms( PB_KEYUP_DELAY );
 c102560:	e3a00064 	mov	r0, #100	; 0x64
 c102564:	eb000752 	bl	c1042b4 <sw_delay_ms>
	while(!pb_pressed());

	sw_delay_ms(PB_KEYDOWN_DELAY);
	scancode = pb_scan();

	while((PDATG & scancode) == 0){
 c102568:	e59f3024 	ldr	r3, [pc, #36]	; c102594 <pb_getchar+0x70>
 c10256c:	e5932000 	ldr	r2, [r3]
 c102570:	e55b300d 	ldrb	r3, [fp, #-13]
 c102574:	e0023003 	and	r3, r2, r3
 c102578:	e3530000 	cmp	r3, #0
 c10257c:	0afffff7 	beq	c102560 <pb_getchar+0x3c>
		sw_delay_ms( PB_KEYUP_DELAY );
	}

	return scancode;
 c102580:	e55b300d 	ldrb	r3, [fp, #-13]
}
 c102584:	e1a00003 	mov	r0, r3
 c102588:	e24bd00c 	sub	sp, fp, #12
 c10258c:	e89d6800 	ldm	sp, {fp, sp, lr}
 c102590:	e12fff1e 	bx	lr
 c102594:	01d20044 	.word	0x01d20044

0c102598 <pb_getchartime>:

uint8 pb_getchartime( uint16 *ms )
{
 c102598:	e1a0c00d 	mov	ip, sp
 c10259c:	e92dd800 	push	{fp, ip, lr, pc}
 c1025a0:	e24cb004 	sub	fp, ip, #4
 c1025a4:	e24dd010 	sub	sp, sp, #16
 c1025a8:	e50b0018 	str	r0, [fp, #-24]	; 0xffffffe8
    uint8 scancode;
    
    //while((PDATG & (1 << 6)) && (PDATG & (1 << 7)));
    while(!pb_pressed());
 c1025ac:	e1a00000 	nop			; (mov r0, r0)
 c1025b0:	ebffffc6 	bl	c1024d0 <pb_pressed>
 c1025b4:	e1a03000 	mov	r3, r0
 c1025b8:	e3530000 	cmp	r3, #0
 c1025bc:	0afffffb 	beq	c1025b0 <pb_getchartime+0x18>
    timer3_start();
 c1025c0:	eb000778 	bl	c1043a8 <timer3_start>
    sw_delay_ms( PB_KEYDOWN_DELAY );
 c1025c4:	e3a0001e 	mov	r0, #30
 c1025c8:	eb000739 	bl	c1042b4 <sw_delay_ms>
    
    scancode = pb_scan();
 c1025cc:	ebffffa8 	bl	c102474 <pb_scan>
 c1025d0:	e1a03000 	mov	r3, r0
 c1025d4:	e54b300d 	strb	r3, [fp, #-13]
    
    while((PDATG & scancode) == PB_UP);
 c1025d8:	e1a00000 	nop			; (mov r0, r0)
 c1025dc:	e59f3054 	ldr	r3, [pc, #84]	; c102638 <pb_getchartime+0xa0>
 c1025e0:	e5932000 	ldr	r2, [r3]
 c1025e4:	e55b300d 	ldrb	r3, [fp, #-13]
 c1025e8:	e0023003 	and	r3, r2, r3
 c1025ec:	e3530000 	cmp	r3, #0
 c1025f0:	0afffff9 	beq	c1025dc <pb_getchartime+0x44>
    *ms = timer3_stop() / 10;
 c1025f4:	eb000797 	bl	c104458 <timer3_stop>
 c1025f8:	e1a03000 	mov	r3, r0
 c1025fc:	e1a02003 	mov	r2, r3
 c102600:	e59f3034 	ldr	r3, [pc, #52]	; c10263c <pb_getchartime+0xa4>
 c102604:	e0831392 	umull	r1, r3, r2, r3
 c102608:	e1a031a3 	lsr	r3, r3, #3
 c10260c:	e1a03803 	lsl	r3, r3, #16
 c102610:	e1a02823 	lsr	r2, r3, #16
 c102614:	e51b3018 	ldr	r3, [fp, #-24]	; 0xffffffe8
 c102618:	e1c320b0 	strh	r2, [r3]
    sw_delay_ms( PB_KEYUP_DELAY );
 c10261c:	e3a00064 	mov	r0, #100	; 0x64
 c102620:	eb000723 	bl	c1042b4 <sw_delay_ms>

    return scancode;
 c102624:	e55b300d 	ldrb	r3, [fp, #-13]
}
 c102628:	e1a00003 	mov	r0, r3
 c10262c:	e24bd00c 	sub	sp, fp, #12
 c102630:	e89d6800 	ldm	sp, {fp, sp, lr}
 c102634:	e12fff1e 	bx	lr
 c102638:	01d20044 	.word	0x01d20044
 c10263c:	cccccccd 	.word	0xcccccccd

0c102640 <pb_timeout_getchar>:

uint8 pb_timeout_getchar( uint16 ms )
{
 c102640:	e1a0c00d 	mov	ip, sp
 c102644:	e92dd800 	push	{fp, ip, lr, pc}
 c102648:	e24cb004 	sub	fp, ip, #4
 c10264c:	e24dd010 	sub	sp, sp, #16
 c102650:	e1a03000 	mov	r3, r0
 c102654:	e14b31b6 	strh	r3, [fp, #-22]	; 0xffffffea
    uint8 scancode;

    timer3_start_timeout(10*ms);
 c102658:	e15b31b6 	ldrh	r3, [fp, #-22]	; 0xffffffea
 c10265c:	e1a02003 	mov	r2, r3
 c102660:	e1a02102 	lsl	r2, r2, #2
 c102664:	e0823003 	add	r3, r2, r3
 c102668:	e1a03083 	lsl	r3, r3, #1
 c10266c:	e1a03803 	lsl	r3, r3, #16
 c102670:	e1a03823 	lsr	r3, r3, #16
 c102674:	e1a00003 	mov	r0, r3
 c102678:	eb00078b 	bl	c1044ac <timer3_start_timeout>

    while(!timer3_timeout() && !pb_pressed());
 c10267c:	e1a00000 	nop			; (mov r0, r0)
 c102680:	eb0007b7 	bl	c104564 <timer3_timeout>
 c102684:	e1a03000 	mov	r3, r0
 c102688:	e3530000 	cmp	r3, #0
 c10268c:	1a000003 	bne	c1026a0 <pb_timeout_getchar+0x60>
 c102690:	ebffff8e 	bl	c1024d0 <pb_pressed>
 c102694:	e1a03000 	mov	r3, r0
 c102698:	e3530000 	cmp	r3, #0
 c10269c:	0afffff7 	beq	c102680 <pb_timeout_getchar+0x40>
    if (timer3_timeout()){
 c1026a0:	eb0007af 	bl	c104564 <timer3_timeout>
 c1026a4:	e1a03000 	mov	r3, r0
 c1026a8:	e3530000 	cmp	r3, #0
 c1026ac:	0a000001 	beq	c1026b8 <pb_timeout_getchar+0x78>
    	return PB_TIMEOUT;
 c1026b0:	e3a030fe 	mov	r3, #254	; 0xfe
 c1026b4:	ea000012 	b	c102704 <pb_timeout_getchar+0xc4>
    }
    else {
    	sw_delay_ms( PB_KEYDOWN_DELAY );
 c1026b8:	e3a0001e 	mov	r0, #30
 c1026bc:	eb0006fc 	bl	c1042b4 <sw_delay_ms>

    	scancode = pb_scan();
 c1026c0:	ebffff6b 	bl	c102474 <pb_scan>
 c1026c4:	e1a03000 	mov	r3, r0
 c1026c8:	e54b300d 	strb	r3, [fp, #-13]
    	while(timer3_timeout() && ((PDATG & scancode) == PB_UP));
 c1026cc:	e1a00000 	nop			; (mov r0, r0)
 c1026d0:	eb0007a3 	bl	c104564 <timer3_timeout>
 c1026d4:	e1a03000 	mov	r3, r0
 c1026d8:	e3530000 	cmp	r3, #0
 c1026dc:	0a000005 	beq	c1026f8 <pb_timeout_getchar+0xb8>
 c1026e0:	e59f302c 	ldr	r3, [pc, #44]	; c102714 <pb_timeout_getchar+0xd4>
 c1026e4:	e5932000 	ldr	r2, [r3]
 c1026e8:	e55b300d 	ldrb	r3, [fp, #-13]
 c1026ec:	e0023003 	and	r3, r2, r3
 c1026f0:	e3530000 	cmp	r3, #0
 c1026f4:	0afffff5 	beq	c1026d0 <pb_timeout_getchar+0x90>
    	    sw_delay_ms( PB_KEYUP_DELAY );
 c1026f8:	e3a00064 	mov	r0, #100	; 0x64
 c1026fc:	eb0006ec 	bl	c1042b4 <sw_delay_ms>

    	return scancode;
 c102700:	e55b300d 	ldrb	r3, [fp, #-13]
    }
}
 c102704:	e1a00003 	mov	r0, r3
 c102708:	e24bd00c 	sub	sp, fp, #12
 c10270c:	e89d6800 	ldm	sp, {fp, sp, lr}
 c102710:	e12fff1e 	bx	lr
 c102714:	01d20044 	.word	0x01d20044

0c102718 <pbs_open>:

void pbs_open( void (*isr)(void) )
{
 c102718:	e1a0c00d 	mov	ip, sp
 c10271c:	e92dd800 	push	{fp, ip, lr, pc}
 c102720:	e24cb004 	sub	fp, ip, #4
 c102724:	e24dd008 	sub	sp, sp, #8
 c102728:	e50b0010 	str	r0, [fp, #-16]
    pISR_PB   = (uint32) isr;
 c10272c:	e59f303c 	ldr	r3, [pc, #60]	; c102770 <pbs_open+0x58>
 c102730:	e51b2010 	ldr	r2, [fp, #-16]
 c102734:	e5832000 	str	r2, [r3]
    EXTINTPND = 0xF;
 c102738:	e59f3034 	ldr	r3, [pc, #52]	; c102774 <pbs_open+0x5c>
 c10273c:	e3a0200f 	mov	r2, #15
 c102740:	e5832000 	str	r2, [r3]
    I_ISPC    = BIT_EINT4567;
 c102744:	e59f302c 	ldr	r3, [pc, #44]	; c102778 <pbs_open+0x60>
 c102748:	e3a02602 	mov	r2, #2097152	; 0x200000
 c10274c:	e5832000 	str	r2, [r3]
    INTMSK   &= ~(BIT_GLOBAL | BIT_EINT4567);
 c102750:	e59f3024 	ldr	r3, [pc, #36]	; c10277c <pbs_open+0x64>
 c102754:	e59f2020 	ldr	r2, [pc, #32]	; c10277c <pbs_open+0x64>
 c102758:	e5922000 	ldr	r2, [r2]
 c10275c:	e3c22642 	bic	r2, r2, #69206016	; 0x4200000
 c102760:	e5832000 	str	r2, [r3]
}
 c102764:	e24bd00c 	sub	sp, fp, #12
 c102768:	e89d6800 	ldm	sp, {fp, sp, lr}
 c10276c:	e12fff1e 	bx	lr
 c102770:	0c7fff74 	.word	0x0c7fff74
 c102774:	01d20054 	.word	0x01d20054
 c102778:	01e00024 	.word	0x01e00024
 c10277c:	01e0000c 	.word	0x01e0000c

0c102780 <pbs_close>:

void pbs_close( void )
{
 c102780:	e1a0c00d 	mov	ip, sp
 c102784:	e92dd800 	push	{fp, ip, lr, pc}
 c102788:	e24cb004 	sub	fp, ip, #4
    INTMSK  |= BIT_EINT4567;
 c10278c:	e59f3024 	ldr	r3, [pc, #36]	; c1027b8 <pbs_close+0x38>
 c102790:	e59f2020 	ldr	r2, [pc, #32]	; c1027b8 <pbs_close+0x38>
 c102794:	e5922000 	ldr	r2, [r2]
 c102798:	e3822602 	orr	r2, r2, #2097152	; 0x200000
 c10279c:	e5832000 	str	r2, [r3]
    pISR_PB  = (uint32) isr_PB_dummy;
 c1027a0:	e59f3014 	ldr	r3, [pc, #20]	; c1027bc <pbs_close+0x3c>
 c1027a4:	e59f2014 	ldr	r2, [pc, #20]	; c1027c0 <pbs_close+0x40>
 c1027a8:	e5832000 	str	r2, [r3]
}
 c1027ac:	e24bd00c 	sub	sp, fp, #12
 c1027b0:	e89d6800 	ldm	sp, {fp, sp, lr}
 c1027b4:	e12fff1e 	bx	lr
 c1027b8:	01e0000c 	.word	0x01e0000c
 c1027bc:	0c7fff74 	.word	0x0c7fff74
 c1027c0:	0c103bdc 	.word	0x0c103bdc

0c1027c4 <rtc_init>:
#include <rtc.h>

extern void isr_TICK_dummy( void );

void rtc_init( void )
{
 c1027c4:	e1a0c00d 	mov	ip, sp
 c1027c8:	e92dd800 	push	{fp, ip, lr, pc}
 c1027cc:	e24cb004 	sub	fp, ip, #4
    TICNT   = 0x80; //10000000
 c1027d0:	e59f30e4 	ldr	r3, [pc, #228]	; c1028bc <rtc_init+0xf8>
 c1027d4:	e3a02080 	mov	r2, #128	; 0x80
 c1027d8:	e5832000 	str	r2, [r3]
    RTCALM  = 0x0;
 c1027dc:	e59f30dc 	ldr	r3, [pc, #220]	; c1028c0 <rtc_init+0xfc>
 c1027e0:	e3a02000 	mov	r2, #0
 c1027e4:	e5832000 	str	r2, [r3]
    RTCRST  = 0x0;
 c1027e8:	e59f30d4 	ldr	r3, [pc, #212]	; c1028c4 <rtc_init+0x100>
 c1027ec:	e3a02000 	mov	r2, #0
 c1027f0:	e5832000 	str	r2, [r3]
        
    RTCCON  = 0x0;
 c1027f4:	e59f30cc 	ldr	r3, [pc, #204]	; c1028c8 <rtc_init+0x104>
 c1027f8:	e3a02000 	mov	r2, #0
 c1027fc:	e5832000 	str	r2, [r3]
    
    BCDYEAR = 0x13;
 c102800:	e59f30c4 	ldr	r3, [pc, #196]	; c1028cc <rtc_init+0x108>
 c102804:	e3a02013 	mov	r2, #19
 c102808:	e5832000 	str	r2, [r3]
    BCDMON  = 0x1;
 c10280c:	e59f30bc 	ldr	r3, [pc, #188]	; c1028d0 <rtc_init+0x10c>
 c102810:	e3a02001 	mov	r2, #1
 c102814:	e5832000 	str	r2, [r3]
    BCDDAY  = 0x1;
 c102818:	e59f30b4 	ldr	r3, [pc, #180]	; c1028d4 <rtc_init+0x110>
 c10281c:	e3a02001 	mov	r2, #1
 c102820:	e5832000 	str	r2, [r3]
    BCDDATE = 0x3;
 c102824:	e59f30ac 	ldr	r3, [pc, #172]	; c1028d8 <rtc_init+0x114>
 c102828:	e3a02003 	mov	r2, #3
 c10282c:	e5832000 	str	r2, [r3]
    BCDHOUR = 0x0;
 c102830:	e59f30a4 	ldr	r3, [pc, #164]	; c1028dc <rtc_init+0x118>
 c102834:	e3a02000 	mov	r2, #0
 c102838:	e5832000 	str	r2, [r3]
    BCDMIN  = 0x0;
 c10283c:	e59f309c 	ldr	r3, [pc, #156]	; c1028e0 <rtc_init+0x11c>
 c102840:	e3a02000 	mov	r2, #0
 c102844:	e5832000 	str	r2, [r3]
    BCDSEC  = 0x0;
 c102848:	e59f3094 	ldr	r3, [pc, #148]	; c1028e4 <rtc_init+0x120>
 c10284c:	e3a02000 	mov	r2, #0
 c102850:	e5832000 	str	r2, [r3]

    ALMYEAR = 0x0;
 c102854:	e59f308c 	ldr	r3, [pc, #140]	; c1028e8 <rtc_init+0x124>
 c102858:	e3a02000 	mov	r2, #0
 c10285c:	e5832000 	str	r2, [r3]
    ALMMON  = 0x0;
 c102860:	e59f3084 	ldr	r3, [pc, #132]	; c1028ec <rtc_init+0x128>
 c102864:	e3a02000 	mov	r2, #0
 c102868:	e5832000 	str	r2, [r3]
    ALMDAY  = 0x0;
 c10286c:	e59f307c 	ldr	r3, [pc, #124]	; c1028f0 <rtc_init+0x12c>
 c102870:	e3a02000 	mov	r2, #0
 c102874:	e5832000 	str	r2, [r3]
    ALMHOUR = 0x0;
 c102878:	e59f3074 	ldr	r3, [pc, #116]	; c1028f4 <rtc_init+0x130>
 c10287c:	e3a02000 	mov	r2, #0
 c102880:	e5832000 	str	r2, [r3]
    ALMMIN  = 0x0;
 c102884:	e59f306c 	ldr	r3, [pc, #108]	; c1028f8 <rtc_init+0x134>
 c102888:	e3a02000 	mov	r2, #0
 c10288c:	e5832000 	str	r2, [r3]
    ALMSEC  = 0x0;
 c102890:	e59f3064 	ldr	r3, [pc, #100]	; c1028fc <rtc_init+0x138>
 c102894:	e3a02000 	mov	r2, #0
 c102898:	e5832000 	str	r2, [r3]

    RTCCON &= ~(1 << 0);
 c10289c:	e59f3024 	ldr	r3, [pc, #36]	; c1028c8 <rtc_init+0x104>
 c1028a0:	e59f2020 	ldr	r2, [pc, #32]	; c1028c8 <rtc_init+0x104>
 c1028a4:	e5922000 	ldr	r2, [r2]
 c1028a8:	e3c22001 	bic	r2, r2, #1
 c1028ac:	e5832000 	str	r2, [r3]
}
 c1028b0:	e24bd00c 	sub	sp, fp, #12
 c1028b4:	e89d6800 	ldm	sp, {fp, sp, lr}
 c1028b8:	e12fff1e 	bx	lr
 c1028bc:	01d7008c 	.word	0x01d7008c
 c1028c0:	01d70050 	.word	0x01d70050
 c1028c4:	01d7006c 	.word	0x01d7006c
 c1028c8:	01d70040 	.word	0x01d70040
 c1028cc:	01d70088 	.word	0x01d70088
 c1028d0:	01d70084 	.word	0x01d70084
 c1028d4:	01d7007c 	.word	0x01d7007c
 c1028d8:	01d70080 	.word	0x01d70080
 c1028dc:	01d70078 	.word	0x01d70078
 c1028e0:	01d70074 	.word	0x01d70074
 c1028e4:	01d70070 	.word	0x01d70070
 c1028e8:	01d70068 	.word	0x01d70068
 c1028ec:	01d70064 	.word	0x01d70064
 c1028f0:	01d70060 	.word	0x01d70060
 c1028f4:	01d7005c 	.word	0x01d7005c
 c1028f8:	01d70058 	.word	0x01d70058
 c1028fc:	01d70054 	.word	0x01d70054

0c102900 <rtc_puttime>:

void rtc_puttime( rtc_time_t *rtc_time )
{
 c102900:	e1a0c00d 	mov	ip, sp
 c102904:	e92dd800 	push	{fp, ip, lr, pc}
 c102908:	e24cb004 	sub	fp, ip, #4
 c10290c:	e24dd008 	sub	sp, sp, #8
 c102910:	e50b0010 	str	r0, [fp, #-16]
    RTCCON |= (1 << 0);
 c102914:	e59f3278 	ldr	r3, [pc, #632]	; c102b94 <rtc_puttime+0x294>
 c102918:	e59f2274 	ldr	r2, [pc, #628]	; c102b94 <rtc_puttime+0x294>
 c10291c:	e5922000 	ldr	r2, [r2]
 c102920:	e3822001 	orr	r2, r2, #1
 c102924:	e5832000 	str	r2, [r3]
    
    BCDYEAR = (((rtc_time->year)/10) << 4) | ((rtc_time->year)%10);
 c102928:	e59f0268 	ldr	r0, [pc, #616]	; c102b98 <rtc_puttime+0x298>
 c10292c:	e51b3010 	ldr	r3, [fp, #-16]
 c102930:	e5d32006 	ldrb	r2, [r3, #6]
 c102934:	e59f3260 	ldr	r3, [pc, #608]	; c102b9c <rtc_puttime+0x29c>
 c102938:	e0831392 	umull	r1, r3, r2, r3
 c10293c:	e1a031a3 	lsr	r3, r3, #3
 c102940:	e20330ff 	and	r3, r3, #255	; 0xff
 c102944:	e1a0c203 	lsl	ip, r3, #4
 c102948:	e51b3010 	ldr	r3, [fp, #-16]
 c10294c:	e5d32006 	ldrb	r2, [r3, #6]
 c102950:	e59f3244 	ldr	r3, [pc, #580]	; c102b9c <rtc_puttime+0x29c>
 c102954:	e0831392 	umull	r1, r3, r2, r3
 c102958:	e1a011a3 	lsr	r1, r3, #3
 c10295c:	e1a03001 	mov	r3, r1
 c102960:	e1a03103 	lsl	r3, r3, #2
 c102964:	e0833001 	add	r3, r3, r1
 c102968:	e1a03083 	lsl	r3, r3, #1
 c10296c:	e0633002 	rsb	r3, r3, r2
 c102970:	e20330ff 	and	r3, r3, #255	; 0xff
 c102974:	e18c3003 	orr	r3, ip, r3
 c102978:	e5803000 	str	r3, [r0]
    BCDMON  = (((rtc_time->mon)/10) << 4) | ((rtc_time->mon)%10);
 c10297c:	e59f021c 	ldr	r0, [pc, #540]	; c102ba0 <rtc_puttime+0x2a0>
 c102980:	e51b3010 	ldr	r3, [fp, #-16]
 c102984:	e5d32005 	ldrb	r2, [r3, #5]
 c102988:	e59f320c 	ldr	r3, [pc, #524]	; c102b9c <rtc_puttime+0x29c>
 c10298c:	e0831392 	umull	r1, r3, r2, r3
 c102990:	e1a031a3 	lsr	r3, r3, #3
 c102994:	e20330ff 	and	r3, r3, #255	; 0xff
 c102998:	e1a0c203 	lsl	ip, r3, #4
 c10299c:	e51b3010 	ldr	r3, [fp, #-16]
 c1029a0:	e5d32005 	ldrb	r2, [r3, #5]
 c1029a4:	e59f31f0 	ldr	r3, [pc, #496]	; c102b9c <rtc_puttime+0x29c>
 c1029a8:	e0831392 	umull	r1, r3, r2, r3
 c1029ac:	e1a011a3 	lsr	r1, r3, #3
 c1029b0:	e1a03001 	mov	r3, r1
 c1029b4:	e1a03103 	lsl	r3, r3, #2
 c1029b8:	e0833001 	add	r3, r3, r1
 c1029bc:	e1a03083 	lsl	r3, r3, #1
 c1029c0:	e0633002 	rsb	r3, r3, r2
 c1029c4:	e20330ff 	and	r3, r3, #255	; 0xff
 c1029c8:	e18c3003 	orr	r3, ip, r3
 c1029cc:	e5803000 	str	r3, [r0]
    BCDDAY  = (((rtc_time->mday)/10) << 4) | ((rtc_time->mday)%10);
 c1029d0:	e59f01cc 	ldr	r0, [pc, #460]	; c102ba4 <rtc_puttime+0x2a4>
 c1029d4:	e51b3010 	ldr	r3, [fp, #-16]
 c1029d8:	e5d32003 	ldrb	r2, [r3, #3]
 c1029dc:	e59f31b8 	ldr	r3, [pc, #440]	; c102b9c <rtc_puttime+0x29c>
 c1029e0:	e0831392 	umull	r1, r3, r2, r3
 c1029e4:	e1a031a3 	lsr	r3, r3, #3
 c1029e8:	e20330ff 	and	r3, r3, #255	; 0xff
 c1029ec:	e1a0c203 	lsl	ip, r3, #4
 c1029f0:	e51b3010 	ldr	r3, [fp, #-16]
 c1029f4:	e5d32003 	ldrb	r2, [r3, #3]
 c1029f8:	e59f319c 	ldr	r3, [pc, #412]	; c102b9c <rtc_puttime+0x29c>
 c1029fc:	e0831392 	umull	r1, r3, r2, r3
 c102a00:	e1a011a3 	lsr	r1, r3, #3
 c102a04:	e1a03001 	mov	r3, r1
 c102a08:	e1a03103 	lsl	r3, r3, #2
 c102a0c:	e0833001 	add	r3, r3, r1
 c102a10:	e1a03083 	lsl	r3, r3, #1
 c102a14:	e0633002 	rsb	r3, r3, r2
 c102a18:	e20330ff 	and	r3, r3, #255	; 0xff
 c102a1c:	e18c3003 	orr	r3, ip, r3
 c102a20:	e5803000 	str	r3, [r0]
    BCDDATE = (((rtc_time->wday)/10) << 4) | ((rtc_time->wday)%10);
 c102a24:	e59f017c 	ldr	r0, [pc, #380]	; c102ba8 <rtc_puttime+0x2a8>
 c102a28:	e51b3010 	ldr	r3, [fp, #-16]
 c102a2c:	e5d32004 	ldrb	r2, [r3, #4]
 c102a30:	e59f3164 	ldr	r3, [pc, #356]	; c102b9c <rtc_puttime+0x29c>
 c102a34:	e0831392 	umull	r1, r3, r2, r3
 c102a38:	e1a031a3 	lsr	r3, r3, #3
 c102a3c:	e20330ff 	and	r3, r3, #255	; 0xff
 c102a40:	e1a0c203 	lsl	ip, r3, #4
 c102a44:	e51b3010 	ldr	r3, [fp, #-16]
 c102a48:	e5d32004 	ldrb	r2, [r3, #4]
 c102a4c:	e59f3148 	ldr	r3, [pc, #328]	; c102b9c <rtc_puttime+0x29c>
 c102a50:	e0831392 	umull	r1, r3, r2, r3
 c102a54:	e1a011a3 	lsr	r1, r3, #3
 c102a58:	e1a03001 	mov	r3, r1
 c102a5c:	e1a03103 	lsl	r3, r3, #2
 c102a60:	e0833001 	add	r3, r3, r1
 c102a64:	e1a03083 	lsl	r3, r3, #1
 c102a68:	e0633002 	rsb	r3, r3, r2
 c102a6c:	e20330ff 	and	r3, r3, #255	; 0xff
 c102a70:	e18c3003 	orr	r3, ip, r3
 c102a74:	e5803000 	str	r3, [r0]
    BCDHOUR = (((rtc_time->hour)/10) << 4) | ((rtc_time->hour)%10);
 c102a78:	e59f012c 	ldr	r0, [pc, #300]	; c102bac <rtc_puttime+0x2ac>
 c102a7c:	e51b3010 	ldr	r3, [fp, #-16]
 c102a80:	e5d32002 	ldrb	r2, [r3, #2]
 c102a84:	e59f3110 	ldr	r3, [pc, #272]	; c102b9c <rtc_puttime+0x29c>
 c102a88:	e0831392 	umull	r1, r3, r2, r3
 c102a8c:	e1a031a3 	lsr	r3, r3, #3
 c102a90:	e20330ff 	and	r3, r3, #255	; 0xff
 c102a94:	e1a0c203 	lsl	ip, r3, #4
 c102a98:	e51b3010 	ldr	r3, [fp, #-16]
 c102a9c:	e5d32002 	ldrb	r2, [r3, #2]
 c102aa0:	e59f30f4 	ldr	r3, [pc, #244]	; c102b9c <rtc_puttime+0x29c>
 c102aa4:	e0831392 	umull	r1, r3, r2, r3
 c102aa8:	e1a011a3 	lsr	r1, r3, #3
 c102aac:	e1a03001 	mov	r3, r1
 c102ab0:	e1a03103 	lsl	r3, r3, #2
 c102ab4:	e0833001 	add	r3, r3, r1
 c102ab8:	e1a03083 	lsl	r3, r3, #1
 c102abc:	e0633002 	rsb	r3, r3, r2
 c102ac0:	e20330ff 	and	r3, r3, #255	; 0xff
 c102ac4:	e18c3003 	orr	r3, ip, r3
 c102ac8:	e5803000 	str	r3, [r0]
    BCDMIN  = (((rtc_time->min)/10) << 4) | ((rtc_time->min)%10);
 c102acc:	e59f00dc 	ldr	r0, [pc, #220]	; c102bb0 <rtc_puttime+0x2b0>
 c102ad0:	e51b3010 	ldr	r3, [fp, #-16]
 c102ad4:	e5d32001 	ldrb	r2, [r3, #1]
 c102ad8:	e59f30bc 	ldr	r3, [pc, #188]	; c102b9c <rtc_puttime+0x29c>
 c102adc:	e0831392 	umull	r1, r3, r2, r3
 c102ae0:	e1a031a3 	lsr	r3, r3, #3
 c102ae4:	e20330ff 	and	r3, r3, #255	; 0xff
 c102ae8:	e1a0c203 	lsl	ip, r3, #4
 c102aec:	e51b3010 	ldr	r3, [fp, #-16]
 c102af0:	e5d32001 	ldrb	r2, [r3, #1]
 c102af4:	e59f30a0 	ldr	r3, [pc, #160]	; c102b9c <rtc_puttime+0x29c>
 c102af8:	e0831392 	umull	r1, r3, r2, r3
 c102afc:	e1a011a3 	lsr	r1, r3, #3
 c102b00:	e1a03001 	mov	r3, r1
 c102b04:	e1a03103 	lsl	r3, r3, #2
 c102b08:	e0833001 	add	r3, r3, r1
 c102b0c:	e1a03083 	lsl	r3, r3, #1
 c102b10:	e0633002 	rsb	r3, r3, r2
 c102b14:	e20330ff 	and	r3, r3, #255	; 0xff
 c102b18:	e18c3003 	orr	r3, ip, r3
 c102b1c:	e5803000 	str	r3, [r0]
    BCDSEC  = (((rtc_time->sec)/10) << 4) | ((rtc_time->sec)%10);
 c102b20:	e59f008c 	ldr	r0, [pc, #140]	; c102bb4 <rtc_puttime+0x2b4>
 c102b24:	e51b3010 	ldr	r3, [fp, #-16]
 c102b28:	e5d32000 	ldrb	r2, [r3]
 c102b2c:	e59f3068 	ldr	r3, [pc, #104]	; c102b9c <rtc_puttime+0x29c>
 c102b30:	e0831392 	umull	r1, r3, r2, r3
 c102b34:	e1a031a3 	lsr	r3, r3, #3
 c102b38:	e20330ff 	and	r3, r3, #255	; 0xff
 c102b3c:	e1a0c203 	lsl	ip, r3, #4
 c102b40:	e51b3010 	ldr	r3, [fp, #-16]
 c102b44:	e5d32000 	ldrb	r2, [r3]
 c102b48:	e59f304c 	ldr	r3, [pc, #76]	; c102b9c <rtc_puttime+0x29c>
 c102b4c:	e0831392 	umull	r1, r3, r2, r3
 c102b50:	e1a011a3 	lsr	r1, r3, #3
 c102b54:	e1a03001 	mov	r3, r1
 c102b58:	e1a03103 	lsl	r3, r3, #2
 c102b5c:	e0833001 	add	r3, r3, r1
 c102b60:	e1a03083 	lsl	r3, r3, #1
 c102b64:	e0633002 	rsb	r3, r3, r2
 c102b68:	e20330ff 	and	r3, r3, #255	; 0xff
 c102b6c:	e18c3003 	orr	r3, ip, r3
 c102b70:	e5803000 	str	r3, [r0]
        
    RTCCON &= ~(1 << 0);
 c102b74:	e59f3018 	ldr	r3, [pc, #24]	; c102b94 <rtc_puttime+0x294>
 c102b78:	e59f2014 	ldr	r2, [pc, #20]	; c102b94 <rtc_puttime+0x294>
 c102b7c:	e5922000 	ldr	r2, [r2]
 c102b80:	e3c22001 	bic	r2, r2, #1
 c102b84:	e5832000 	str	r2, [r3]
}
 c102b88:	e24bd00c 	sub	sp, fp, #12
 c102b8c:	e89d6800 	ldm	sp, {fp, sp, lr}
 c102b90:	e12fff1e 	bx	lr
 c102b94:	01d70040 	.word	0x01d70040
 c102b98:	01d70088 	.word	0x01d70088
 c102b9c:	cccccccd 	.word	0xcccccccd
 c102ba0:	01d70084 	.word	0x01d70084
 c102ba4:	01d7007c 	.word	0x01d7007c
 c102ba8:	01d70080 	.word	0x01d70080
 c102bac:	01d70078 	.word	0x01d70078
 c102bb0:	01d70074 	.word	0x01d70074
 c102bb4:	01d70070 	.word	0x01d70070

0c102bb8 <rtc_gettime>:

void rtc_gettime( rtc_time_t *rtc_time )
{
 c102bb8:	e1a0c00d 	mov	ip, sp
 c102bbc:	e92dd800 	push	{fp, ip, lr, pc}
 c102bc0:	e24cb004 	sub	fp, ip, #4
 c102bc4:	e24dd008 	sub	sp, sp, #8
 c102bc8:	e50b0010 	str	r0, [fp, #-16]
    RTCCON |= (1 << 0);
 c102bcc:	e59f342c 	ldr	r3, [pc, #1068]	; c103000 <rtc_gettime+0x448>
 c102bd0:	e59f2428 	ldr	r2, [pc, #1064]	; c103000 <rtc_gettime+0x448>
 c102bd4:	e5922000 	ldr	r2, [r2]
 c102bd8:	e3822001 	orr	r2, r2, #1
 c102bdc:	e5832000 	str	r2, [r3]
    
    rtc_time->year = (BCDYEAR & 0xF) + (BCDYEAR >> 4) *10;
 c102be0:	e59f341c 	ldr	r3, [pc, #1052]	; c103004 <rtc_gettime+0x44c>
 c102be4:	e5933000 	ldr	r3, [r3]
 c102be8:	e20330ff 	and	r3, r3, #255	; 0xff
 c102bec:	e203300f 	and	r3, r3, #15
 c102bf0:	e20320ff 	and	r2, r3, #255	; 0xff
 c102bf4:	e59f3408 	ldr	r3, [pc, #1032]	; c103004 <rtc_gettime+0x44c>
 c102bf8:	e5933000 	ldr	r3, [r3]
 c102bfc:	e1a03223 	lsr	r3, r3, #4
 c102c00:	e20330ff 	and	r3, r3, #255	; 0xff
 c102c04:	e1a01003 	mov	r1, r3
 c102c08:	e1a01101 	lsl	r1, r1, #2
 c102c0c:	e0813003 	add	r3, r1, r3
 c102c10:	e1a03083 	lsl	r3, r3, #1
 c102c14:	e20330ff 	and	r3, r3, #255	; 0xff
 c102c18:	e0823003 	add	r3, r2, r3
 c102c1c:	e20320ff 	and	r2, r3, #255	; 0xff
 c102c20:	e51b3010 	ldr	r3, [fp, #-16]
 c102c24:	e5c32006 	strb	r2, [r3, #6]
    rtc_time->mon  = (BCDMON & 0xF) + (BCDMON >> 4) *10;
 c102c28:	e59f33d8 	ldr	r3, [pc, #984]	; c103008 <rtc_gettime+0x450>
 c102c2c:	e5933000 	ldr	r3, [r3]
 c102c30:	e20330ff 	and	r3, r3, #255	; 0xff
 c102c34:	e203300f 	and	r3, r3, #15
 c102c38:	e20320ff 	and	r2, r3, #255	; 0xff
 c102c3c:	e59f33c4 	ldr	r3, [pc, #964]	; c103008 <rtc_gettime+0x450>
 c102c40:	e5933000 	ldr	r3, [r3]
 c102c44:	e1a03223 	lsr	r3, r3, #4
 c102c48:	e20330ff 	and	r3, r3, #255	; 0xff
 c102c4c:	e1a01003 	mov	r1, r3
 c102c50:	e1a01101 	lsl	r1, r1, #2
 c102c54:	e0813003 	add	r3, r1, r3
 c102c58:	e1a03083 	lsl	r3, r3, #1
 c102c5c:	e20330ff 	and	r3, r3, #255	; 0xff
 c102c60:	e0823003 	add	r3, r2, r3
 c102c64:	e20320ff 	and	r2, r3, #255	; 0xff
 c102c68:	e51b3010 	ldr	r3, [fp, #-16]
 c102c6c:	e5c32005 	strb	r2, [r3, #5]
    rtc_time->mday = (BCDDAY & 0xF) + (BCDDAY >> 4) *10;
 c102c70:	e59f3394 	ldr	r3, [pc, #916]	; c10300c <rtc_gettime+0x454>
 c102c74:	e5933000 	ldr	r3, [r3]
 c102c78:	e20330ff 	and	r3, r3, #255	; 0xff
 c102c7c:	e203300f 	and	r3, r3, #15
 c102c80:	e20320ff 	and	r2, r3, #255	; 0xff
 c102c84:	e59f3380 	ldr	r3, [pc, #896]	; c10300c <rtc_gettime+0x454>
 c102c88:	e5933000 	ldr	r3, [r3]
 c102c8c:	e1a03223 	lsr	r3, r3, #4
 c102c90:	e20330ff 	and	r3, r3, #255	; 0xff
 c102c94:	e1a01003 	mov	r1, r3
 c102c98:	e1a01101 	lsl	r1, r1, #2
 c102c9c:	e0813003 	add	r3, r1, r3
 c102ca0:	e1a03083 	lsl	r3, r3, #1
 c102ca4:	e20330ff 	and	r3, r3, #255	; 0xff
 c102ca8:	e0823003 	add	r3, r2, r3
 c102cac:	e20320ff 	and	r2, r3, #255	; 0xff
 c102cb0:	e51b3010 	ldr	r3, [fp, #-16]
 c102cb4:	e5c32003 	strb	r2, [r3, #3]
    rtc_time->wday = (BCDDATE & 0xF) + (BCDDATE >> 4) *10;
 c102cb8:	e59f3350 	ldr	r3, [pc, #848]	; c103010 <rtc_gettime+0x458>
 c102cbc:	e5933000 	ldr	r3, [r3]
 c102cc0:	e20330ff 	and	r3, r3, #255	; 0xff
 c102cc4:	e203300f 	and	r3, r3, #15
 c102cc8:	e20320ff 	and	r2, r3, #255	; 0xff
 c102ccc:	e59f333c 	ldr	r3, [pc, #828]	; c103010 <rtc_gettime+0x458>
 c102cd0:	e5933000 	ldr	r3, [r3]
 c102cd4:	e1a03223 	lsr	r3, r3, #4
 c102cd8:	e20330ff 	and	r3, r3, #255	; 0xff
 c102cdc:	e1a01003 	mov	r1, r3
 c102ce0:	e1a01101 	lsl	r1, r1, #2
 c102ce4:	e0813003 	add	r3, r1, r3
 c102ce8:	e1a03083 	lsl	r3, r3, #1
 c102cec:	e20330ff 	and	r3, r3, #255	; 0xff
 c102cf0:	e0823003 	add	r3, r2, r3
 c102cf4:	e20320ff 	and	r2, r3, #255	; 0xff
 c102cf8:	e51b3010 	ldr	r3, [fp, #-16]
 c102cfc:	e5c32004 	strb	r2, [r3, #4]
    rtc_time->hour = (BCDHOUR & 0xF) + (BCDHOUR >> 4) *10;
 c102d00:	e59f330c 	ldr	r3, [pc, #780]	; c103014 <rtc_gettime+0x45c>
 c102d04:	e5933000 	ldr	r3, [r3]
 c102d08:	e20330ff 	and	r3, r3, #255	; 0xff
 c102d0c:	e203300f 	and	r3, r3, #15
 c102d10:	e20320ff 	and	r2, r3, #255	; 0xff
 c102d14:	e59f32f8 	ldr	r3, [pc, #760]	; c103014 <rtc_gettime+0x45c>
 c102d18:	e5933000 	ldr	r3, [r3]
 c102d1c:	e1a03223 	lsr	r3, r3, #4
 c102d20:	e20330ff 	and	r3, r3, #255	; 0xff
 c102d24:	e1a01003 	mov	r1, r3
 c102d28:	e1a01101 	lsl	r1, r1, #2
 c102d2c:	e0813003 	add	r3, r1, r3
 c102d30:	e1a03083 	lsl	r3, r3, #1
 c102d34:	e20330ff 	and	r3, r3, #255	; 0xff
 c102d38:	e0823003 	add	r3, r2, r3
 c102d3c:	e20320ff 	and	r2, r3, #255	; 0xff
 c102d40:	e51b3010 	ldr	r3, [fp, #-16]
 c102d44:	e5c32002 	strb	r2, [r3, #2]
    rtc_time->min  = (BCDMIN & 0xF) + (BCDMIN >> 4) *10;
 c102d48:	e59f32c8 	ldr	r3, [pc, #712]	; c103018 <rtc_gettime+0x460>
 c102d4c:	e5933000 	ldr	r3, [r3]
 c102d50:	e20330ff 	and	r3, r3, #255	; 0xff
 c102d54:	e203300f 	and	r3, r3, #15
 c102d58:	e20320ff 	and	r2, r3, #255	; 0xff
 c102d5c:	e59f32b4 	ldr	r3, [pc, #692]	; c103018 <rtc_gettime+0x460>
 c102d60:	e5933000 	ldr	r3, [r3]
 c102d64:	e1a03223 	lsr	r3, r3, #4
 c102d68:	e20330ff 	and	r3, r3, #255	; 0xff
 c102d6c:	e1a01003 	mov	r1, r3
 c102d70:	e1a01101 	lsl	r1, r1, #2
 c102d74:	e0813003 	add	r3, r1, r3
 c102d78:	e1a03083 	lsl	r3, r3, #1
 c102d7c:	e20330ff 	and	r3, r3, #255	; 0xff
 c102d80:	e0823003 	add	r3, r2, r3
 c102d84:	e20320ff 	and	r2, r3, #255	; 0xff
 c102d88:	e51b3010 	ldr	r3, [fp, #-16]
 c102d8c:	e5c32001 	strb	r2, [r3, #1]
    rtc_time->sec  = (BCDSEC & 0xF) + (BCDSEC >> 4) *10;
 c102d90:	e59f3284 	ldr	r3, [pc, #644]	; c10301c <rtc_gettime+0x464>
 c102d94:	e5933000 	ldr	r3, [r3]
 c102d98:	e20330ff 	and	r3, r3, #255	; 0xff
 c102d9c:	e203300f 	and	r3, r3, #15
 c102da0:	e20320ff 	and	r2, r3, #255	; 0xff
 c102da4:	e59f3270 	ldr	r3, [pc, #624]	; c10301c <rtc_gettime+0x464>
 c102da8:	e5933000 	ldr	r3, [r3]
 c102dac:	e1a03223 	lsr	r3, r3, #4
 c102db0:	e20330ff 	and	r3, r3, #255	; 0xff
 c102db4:	e1a01003 	mov	r1, r3
 c102db8:	e1a01101 	lsl	r1, r1, #2
 c102dbc:	e0813003 	add	r3, r1, r3
 c102dc0:	e1a03083 	lsl	r3, r3, #1
 c102dc4:	e20330ff 	and	r3, r3, #255	; 0xff
 c102dc8:	e0823003 	add	r3, r2, r3
 c102dcc:	e20320ff 	and	r2, r3, #255	; 0xff
 c102dd0:	e51b3010 	ldr	r3, [fp, #-16]
 c102dd4:	e5c32000 	strb	r2, [r3]
    if( ! rtc_time->sec ){
 c102dd8:	e51b3010 	ldr	r3, [fp, #-16]
 c102ddc:	e5d33000 	ldrb	r3, [r3]
 c102de0:	e3530000 	cmp	r3, #0
 c102de4:	1a00007d 	bne	c102fe0 <rtc_gettime+0x428>
        rtc_time->year = (BCDYEAR & 0xF) + (BCDYEAR >> 4) *10;
 c102de8:	e59f3214 	ldr	r3, [pc, #532]	; c103004 <rtc_gettime+0x44c>
 c102dec:	e5933000 	ldr	r3, [r3]
 c102df0:	e20330ff 	and	r3, r3, #255	; 0xff
 c102df4:	e203300f 	and	r3, r3, #15
 c102df8:	e20320ff 	and	r2, r3, #255	; 0xff
 c102dfc:	e59f3200 	ldr	r3, [pc, #512]	; c103004 <rtc_gettime+0x44c>
 c102e00:	e5933000 	ldr	r3, [r3]
 c102e04:	e1a03223 	lsr	r3, r3, #4
 c102e08:	e20330ff 	and	r3, r3, #255	; 0xff
 c102e0c:	e1a01003 	mov	r1, r3
 c102e10:	e1a01101 	lsl	r1, r1, #2
 c102e14:	e0813003 	add	r3, r1, r3
 c102e18:	e1a03083 	lsl	r3, r3, #1
 c102e1c:	e20330ff 	and	r3, r3, #255	; 0xff
 c102e20:	e0823003 	add	r3, r2, r3
 c102e24:	e20320ff 	and	r2, r3, #255	; 0xff
 c102e28:	e51b3010 	ldr	r3, [fp, #-16]
 c102e2c:	e5c32006 	strb	r2, [r3, #6]
        rtc_time->mon  = (BCDMON & 0xF) + (BCDMON >> 4) *10;
 c102e30:	e59f31d0 	ldr	r3, [pc, #464]	; c103008 <rtc_gettime+0x450>
 c102e34:	e5933000 	ldr	r3, [r3]
 c102e38:	e20330ff 	and	r3, r3, #255	; 0xff
 c102e3c:	e203300f 	and	r3, r3, #15
 c102e40:	e20320ff 	and	r2, r3, #255	; 0xff
 c102e44:	e59f31bc 	ldr	r3, [pc, #444]	; c103008 <rtc_gettime+0x450>
 c102e48:	e5933000 	ldr	r3, [r3]
 c102e4c:	e1a03223 	lsr	r3, r3, #4
 c102e50:	e20330ff 	and	r3, r3, #255	; 0xff
 c102e54:	e1a01003 	mov	r1, r3
 c102e58:	e1a01101 	lsl	r1, r1, #2
 c102e5c:	e0813003 	add	r3, r1, r3
 c102e60:	e1a03083 	lsl	r3, r3, #1
 c102e64:	e20330ff 	and	r3, r3, #255	; 0xff
 c102e68:	e0823003 	add	r3, r2, r3
 c102e6c:	e20320ff 	and	r2, r3, #255	; 0xff
 c102e70:	e51b3010 	ldr	r3, [fp, #-16]
 c102e74:	e5c32005 	strb	r2, [r3, #5]
        rtc_time->mday = (BCDDATE & 0xF) + (BCDDATE >> 4) *10;
 c102e78:	e59f3190 	ldr	r3, [pc, #400]	; c103010 <rtc_gettime+0x458>
 c102e7c:	e5933000 	ldr	r3, [r3]
 c102e80:	e20330ff 	and	r3, r3, #255	; 0xff
 c102e84:	e203300f 	and	r3, r3, #15
 c102e88:	e20320ff 	and	r2, r3, #255	; 0xff
 c102e8c:	e59f317c 	ldr	r3, [pc, #380]	; c103010 <rtc_gettime+0x458>
 c102e90:	e5933000 	ldr	r3, [r3]
 c102e94:	e1a03223 	lsr	r3, r3, #4
 c102e98:	e20330ff 	and	r3, r3, #255	; 0xff
 c102e9c:	e1a01003 	mov	r1, r3
 c102ea0:	e1a01101 	lsl	r1, r1, #2
 c102ea4:	e0813003 	add	r3, r1, r3
 c102ea8:	e1a03083 	lsl	r3, r3, #1
 c102eac:	e20330ff 	and	r3, r3, #255	; 0xff
 c102eb0:	e0823003 	add	r3, r2, r3
 c102eb4:	e20320ff 	and	r2, r3, #255	; 0xff
 c102eb8:	e51b3010 	ldr	r3, [fp, #-16]
 c102ebc:	e5c32003 	strb	r2, [r3, #3]
        rtc_time->wday = (BCDDAY & 0xF) + (BCDDAY >> 4) *10;
 c102ec0:	e59f3144 	ldr	r3, [pc, #324]	; c10300c <rtc_gettime+0x454>
 c102ec4:	e5933000 	ldr	r3, [r3]
 c102ec8:	e20330ff 	and	r3, r3, #255	; 0xff
 c102ecc:	e203300f 	and	r3, r3, #15
 c102ed0:	e20320ff 	and	r2, r3, #255	; 0xff
 c102ed4:	e59f3130 	ldr	r3, [pc, #304]	; c10300c <rtc_gettime+0x454>
 c102ed8:	e5933000 	ldr	r3, [r3]
 c102edc:	e1a03223 	lsr	r3, r3, #4
 c102ee0:	e20330ff 	and	r3, r3, #255	; 0xff
 c102ee4:	e1a01003 	mov	r1, r3
 c102ee8:	e1a01101 	lsl	r1, r1, #2
 c102eec:	e0813003 	add	r3, r1, r3
 c102ef0:	e1a03083 	lsl	r3, r3, #1
 c102ef4:	e20330ff 	and	r3, r3, #255	; 0xff
 c102ef8:	e0823003 	add	r3, r2, r3
 c102efc:	e20320ff 	and	r2, r3, #255	; 0xff
 c102f00:	e51b3010 	ldr	r3, [fp, #-16]
 c102f04:	e5c32004 	strb	r2, [r3, #4]
        rtc_time->hour = (BCDHOUR & 0xF) + (BCDHOUR >> 4) *10;
 c102f08:	e59f3104 	ldr	r3, [pc, #260]	; c103014 <rtc_gettime+0x45c>
 c102f0c:	e5933000 	ldr	r3, [r3]
 c102f10:	e20330ff 	and	r3, r3, #255	; 0xff
 c102f14:	e203300f 	and	r3, r3, #15
 c102f18:	e20320ff 	and	r2, r3, #255	; 0xff
 c102f1c:	e59f30f0 	ldr	r3, [pc, #240]	; c103014 <rtc_gettime+0x45c>
 c102f20:	e5933000 	ldr	r3, [r3]
 c102f24:	e1a03223 	lsr	r3, r3, #4
 c102f28:	e20330ff 	and	r3, r3, #255	; 0xff
 c102f2c:	e1a01003 	mov	r1, r3
 c102f30:	e1a01101 	lsl	r1, r1, #2
 c102f34:	e0813003 	add	r3, r1, r3
 c102f38:	e1a03083 	lsl	r3, r3, #1
 c102f3c:	e20330ff 	and	r3, r3, #255	; 0xff
 c102f40:	e0823003 	add	r3, r2, r3
 c102f44:	e20320ff 	and	r2, r3, #255	; 0xff
 c102f48:	e51b3010 	ldr	r3, [fp, #-16]
 c102f4c:	e5c32002 	strb	r2, [r3, #2]
        rtc_time->min  = (BCDMIN & 0xF) + (BCDMIN >> 4) *10;
 c102f50:	e59f30c0 	ldr	r3, [pc, #192]	; c103018 <rtc_gettime+0x460>
 c102f54:	e5933000 	ldr	r3, [r3]
 c102f58:	e20330ff 	and	r3, r3, #255	; 0xff
 c102f5c:	e203300f 	and	r3, r3, #15
 c102f60:	e20320ff 	and	r2, r3, #255	; 0xff
 c102f64:	e59f30ac 	ldr	r3, [pc, #172]	; c103018 <rtc_gettime+0x460>
 c102f68:	e5933000 	ldr	r3, [r3]
 c102f6c:	e1a03223 	lsr	r3, r3, #4
 c102f70:	e20330ff 	and	r3, r3, #255	; 0xff
 c102f74:	e1a01003 	mov	r1, r3
 c102f78:	e1a01101 	lsl	r1, r1, #2
 c102f7c:	e0813003 	add	r3, r1, r3
 c102f80:	e1a03083 	lsl	r3, r3, #1
 c102f84:	e20330ff 	and	r3, r3, #255	; 0xff
 c102f88:	e0823003 	add	r3, r2, r3
 c102f8c:	e20320ff 	and	r2, r3, #255	; 0xff
 c102f90:	e51b3010 	ldr	r3, [fp, #-16]
 c102f94:	e5c32001 	strb	r2, [r3, #1]
        rtc_time->sec  = (BCDSEC & 0xF) + (BCDSEC >> 4) *10;
 c102f98:	e59f307c 	ldr	r3, [pc, #124]	; c10301c <rtc_gettime+0x464>
 c102f9c:	e5933000 	ldr	r3, [r3]
 c102fa0:	e20330ff 	and	r3, r3, #255	; 0xff
 c102fa4:	e203300f 	and	r3, r3, #15
 c102fa8:	e20320ff 	and	r2, r3, #255	; 0xff
 c102fac:	e59f3068 	ldr	r3, [pc, #104]	; c10301c <rtc_gettime+0x464>
 c102fb0:	e5933000 	ldr	r3, [r3]
 c102fb4:	e1a03223 	lsr	r3, r3, #4
 c102fb8:	e20330ff 	and	r3, r3, #255	; 0xff
 c102fbc:	e1a01003 	mov	r1, r3
 c102fc0:	e1a01101 	lsl	r1, r1, #2
 c102fc4:	e0813003 	add	r3, r1, r3
 c102fc8:	e1a03083 	lsl	r3, r3, #1
 c102fcc:	e20330ff 	and	r3, r3, #255	; 0xff
 c102fd0:	e0823003 	add	r3, r2, r3
 c102fd4:	e20320ff 	and	r2, r3, #255	; 0xff
 c102fd8:	e51b3010 	ldr	r3, [fp, #-16]
 c102fdc:	e5c32000 	strb	r2, [r3]
    };

    RTCCON &= ~(1 << 0);
 c102fe0:	e59f3018 	ldr	r3, [pc, #24]	; c103000 <rtc_gettime+0x448>
 c102fe4:	e59f2014 	ldr	r2, [pc, #20]	; c103000 <rtc_gettime+0x448>
 c102fe8:	e5922000 	ldr	r2, [r2]
 c102fec:	e3c22001 	bic	r2, r2, #1
 c102ff0:	e5832000 	str	r2, [r3]
}
 c102ff4:	e24bd00c 	sub	sp, fp, #12
 c102ff8:	e89d6800 	ldm	sp, {fp, sp, lr}
 c102ffc:	e12fff1e 	bx	lr
 c103000:	01d70040 	.word	0x01d70040
 c103004:	01d70088 	.word	0x01d70088
 c103008:	01d70084 	.word	0x01d70084
 c10300c:	01d7007c 	.word	0x01d7007c
 c103010:	01d70080 	.word	0x01d70080
 c103014:	01d70078 	.word	0x01d70078
 c103018:	01d70074 	.word	0x01d70074
 c10301c:	01d70070 	.word	0x01d70070

0c103020 <rtc_open>:


void rtc_open( void (*isr)(void), uint8 tick_count )
{
 c103020:	e1a0c00d 	mov	ip, sp
 c103024:	e92dd800 	push	{fp, ip, lr, pc}
 c103028:	e24cb004 	sub	fp, ip, #4
 c10302c:	e24dd008 	sub	sp, sp, #8
 c103030:	e50b0010 	str	r0, [fp, #-16]
 c103034:	e1a03001 	mov	r3, r1
 c103038:	e54b3011 	strb	r3, [fp, #-17]	; 0xffffffef
    pISR_TICK = (uint32) isr;
 c10303c:	e59f3048 	ldr	r3, [pc, #72]	; c10308c <rtc_open+0x6c>
 c103040:	e51b2010 	ldr	r2, [fp, #-16]
 c103044:	e5832000 	str	r2, [r3]
    I_ISPC    = BIT_TICK;
 c103048:	e59f3040 	ldr	r3, [pc, #64]	; c103090 <rtc_open+0x70>
 c10304c:	e3a02601 	mov	r2, #1048576	; 0x100000
 c103050:	e5832000 	str	r2, [r3]
    INTMSK   &= ~(BIT_GLOBAL | BIT_TICK);
 c103054:	e59f3038 	ldr	r3, [pc, #56]	; c103094 <rtc_open+0x74>
 c103058:	e59f2034 	ldr	r2, [pc, #52]	; c103094 <rtc_open+0x74>
 c10305c:	e5922000 	ldr	r2, [r2]
 c103060:	e3c22641 	bic	r2, r2, #68157440	; 0x4100000
 c103064:	e5832000 	str	r2, [r3]
    TICNT     = 0x80 | tick_count;
 c103068:	e59f2028 	ldr	r2, [pc, #40]	; c103098 <rtc_open+0x78>
 c10306c:	e55b3011 	ldrb	r3, [fp, #-17]	; 0xffffffef
 c103070:	e1e03c83 	mvn	r3, r3, lsl #25
 c103074:	e1e03ca3 	mvn	r3, r3, lsr #25
 c103078:	e20330ff 	and	r3, r3, #255	; 0xff
 c10307c:	e5823000 	str	r3, [r2]
}
 c103080:	e24bd00c 	sub	sp, fp, #12
 c103084:	e89d6800 	ldm	sp, {fp, sp, lr}
 c103088:	e12fff1e 	bx	lr
 c10308c:	0c7fff70 	.word	0x0c7fff70
 c103090:	01e00024 	.word	0x01e00024
 c103094:	01e0000c 	.word	0x01e0000c
 c103098:	01d7008c 	.word	0x01d7008c

0c10309c <rtc_close>:

void rtc_close( void )
{
 c10309c:	e1a0c00d 	mov	ip, sp
 c1030a0:	e92dd800 	push	{fp, ip, lr, pc}
 c1030a4:	e24cb004 	sub	fp, ip, #4
    TICNT     = 0x0;
 c1030a8:	e59f3030 	ldr	r3, [pc, #48]	; c1030e0 <rtc_close+0x44>
 c1030ac:	e3a02000 	mov	r2, #0
 c1030b0:	e5832000 	str	r2, [r3]
    INTMSK   |= BIT_TICK;
 c1030b4:	e59f3028 	ldr	r3, [pc, #40]	; c1030e4 <rtc_close+0x48>
 c1030b8:	e59f2024 	ldr	r2, [pc, #36]	; c1030e4 <rtc_close+0x48>
 c1030bc:	e5922000 	ldr	r2, [r2]
 c1030c0:	e3822601 	orr	r2, r2, #1048576	; 0x100000
 c1030c4:	e5832000 	str	r2, [r3]
    pISR_TICK = isr_TICK_dummy;
 c1030c8:	e59f3018 	ldr	r3, [pc, #24]	; c1030e8 <rtc_close+0x4c>
 c1030cc:	e59f2018 	ldr	r2, [pc, #24]	; c1030ec <rtc_close+0x50>
 c1030d0:	e5832000 	str	r2, [r3]
}
 c1030d4:	e24bd00c 	sub	sp, fp, #12
 c1030d8:	e89d6800 	ldm	sp, {fp, sp, lr}
 c1030dc:	e12fff1e 	bx	lr
 c1030e0:	01d7008c 	.word	0x01d7008c
 c1030e4:	01e0000c 	.word	0x01e0000c
 c1030e8:	0c7fff70 	.word	0x0c7fff70
 c1030ec:	0c103bb0 	.word	0x0c103bb0

0c1030f0 <segs_init>:
static const uint8 hex2segs[16] = {0x12, 0x9f, 0x31, 0x15, 0x9C, 0x54, 0x50, 0x1f, 0x10, 0x1C, 0x18, 0xD0, 0x72, 0x91, 0x70, 0x78};

static uint8 state;

void segs_init( void )
{
 c1030f0:	e1a0c00d 	mov	ip, sp
 c1030f4:	e92dd800 	push	{fp, ip, lr, pc}
 c1030f8:	e24cb004 	sub	fp, ip, #4
    segs_off();
 c1030fc:	eb000002 	bl	c10310c <segs_off>
}
 c103100:	e24bd00c 	sub	sp, fp, #12
 c103104:	e89d6800 	ldm	sp, {fp, sp, lr}
 c103108:	e12fff1e 	bx	lr

0c10310c <segs_off>:

void segs_off( void )
{
 c10310c:	e1a0c00d 	mov	ip, sp
 c103110:	e92dd800 	push	{fp, ip, lr, pc}
 c103114:	e24cb004 	sub	fp, ip, #4
    state = SEGS_OFF;
 c103118:	e59f3020 	ldr	r3, [pc, #32]	; c103140 <segs_off+0x34>
 c10311c:	e3e02000 	mvn	r2, #0
 c103120:	e5c32000 	strb	r2, [r3]
    SEGS = state;
 c103124:	e3a03785 	mov	r3, #34865152	; 0x2140000
 c103128:	e59f2010 	ldr	r2, [pc, #16]	; c103140 <segs_off+0x34>
 c10312c:	e5d22000 	ldrb	r2, [r2]
 c103130:	e5c32000 	strb	r2, [r3]
}
 c103134:	e24bd00c 	sub	sp, fp, #12
 c103138:	e89d6800 	ldm	sp, {fp, sp, lr}
 c10313c:	e12fff1e 	bx	lr
 c103140:	0c1072a5 	.word	0x0c1072a5

0c103144 <segs_putchar>:

void segs_putchar( uint8 n )
{
 c103144:	e1a0c00d 	mov	ip, sp
 c103148:	e92dd800 	push	{fp, ip, lr, pc}
 c10314c:	e24cb004 	sub	fp, ip, #4
 c103150:	e24dd008 	sub	sp, sp, #8
 c103154:	e1a03000 	mov	r3, r0
 c103158:	e54b300d 	strb	r3, [fp, #-13]
    state = n & 0x0f;
 c10315c:	e55b300d 	ldrb	r3, [fp, #-13]
 c103160:	e203300f 	and	r3, r3, #15
 c103164:	e20320ff 	and	r2, r3, #255	; 0xff
 c103168:	e59f3024 	ldr	r3, [pc, #36]	; c103194 <segs_putchar+0x50>
 c10316c:	e5c32000 	strb	r2, [r3]
    SEGS = hex2segs[state];
 c103170:	e3a03785 	mov	r3, #34865152	; 0x2140000
 c103174:	e59f2018 	ldr	r2, [pc, #24]	; c103194 <segs_putchar+0x50>
 c103178:	e5d22000 	ldrb	r2, [r2]
 c10317c:	e59f1014 	ldr	r1, [pc, #20]	; c103198 <segs_putchar+0x54>
 c103180:	e7d12002 	ldrb	r2, [r1, r2]
 c103184:	e5c32000 	strb	r2, [r3]
};
 c103188:	e24bd00c 	sub	sp, fp, #12
 c10318c:	e89d6800 	ldm	sp, {fp, sp, lr}
 c103190:	e12fff1e 	bx	lr
 c103194:	0c1072a5 	.word	0x0c1072a5
 c103198:	0c105be4 	.word	0x0c105be4

0c10319c <segs_status>:

uint8 segs_status( void )
{
 c10319c:	e1a0c00d 	mov	ip, sp
 c1031a0:	e92dd800 	push	{fp, ip, lr, pc}
 c1031a4:	e24cb004 	sub	fp, ip, #4
    return state;
 c1031a8:	e59f3010 	ldr	r3, [pc, #16]	; c1031c0 <segs_status+0x24>
 c1031ac:	e5d33000 	ldrb	r3, [r3]
};
 c1031b0:	e1a00003 	mov	r0, r3
 c1031b4:	e24bd00c 	sub	sp, fp, #12
 c1031b8:	e89d6800 	ldm	sp, {fp, sp, lr}
 c1031bc:	e12fff1e 	bx	lr
 c1031c0:	0c1072a5 	.word	0x0c1072a5

0c1031c4 <sys_init>:
void isr_TS_dummy( void )       __attribute__ ((interrupt ("IRQ")));
void isr_KEYPAD_dummy( void )       __attribute__ ((interrupt ("IRQ")));
void isr_USB_dummy( void )       __attribute__ ((interrupt ("IRQ")));

void sys_init( void )
{
 c1031c4:	e1a0c00d 	mov	ip, sp
 c1031c8:	e92dd800 	push	{fp, ip, lr, pc}
 c1031cc:	e24cb004 	sub	fp, ip, #4
 c1031d0:	e24dd008 	sub	sp, sp, #8
	uint8 mode;

	WTCON  = 0;             // deshabilita el watchdog
 c1031d4:	e59f30fc 	ldr	r3, [pc, #252]	; c1032d8 <sys_init+0x114>
 c1031d8:	e3a02000 	mov	r2, #0
 c1031dc:	e5832000 	str	r2, [r3]
	INTMSK = ~0;            // enmascara todas las interrupciones
 c1031e0:	e59f30f4 	ldr	r3, [pc, #244]	; c1032dc <sys_init+0x118>
 c1031e4:	e3e02000 	mvn	r2, #0
 c1031e8:	e5832000 	str	r2, [r3]

	GET_OPMODE( &mode );    // lee el modo de ejecución del procesador
 c1031ec:	e10f0000 	mrs	r0, CPSR
 c1031f0:	e200001f 	and	r0, r0, #31
 c1031f4:	e54b000d 	strb	r0, [fp, #-13]
	if( mode != SVCMODE )
 c1031f8:	e55b300d 	ldrb	r3, [fp, #-13]
 c1031fc:	e3530013 	cmp	r3, #19
 c103200:	0a000000 	beq	c103208 <sys_init+0x44>
		sys_recovery();     // si no es SVC (por una reejecución de la aplicación tras una excepción sin reset HW previo) recupera el modo SVC y restaura las pilas del sistema
 c103204:	eb0002c0 	bl	c103d0c <sys_recovery>

	// Configuracion del gestor de reloj
	LOCKTIME = 0xFFF;         // estabilizacion del PLL = 512 us
 c103208:	e59f30d0 	ldr	r3, [pc, #208]	; c1032e0 <sys_init+0x11c>
 c10320c:	e59f20d0 	ldr	r2, [pc, #208]	; c1032e4 <sys_init+0x120>
 c103210:	e5832000 	str	r2, [r3]
	PLLCON   = 0x38021;         // MCLK = 64MHz
 c103214:	e3a03776 	mov	r3, #30932992	; 0x1d80000
 c103218:	e59f20c8 	ldr	r2, [pc, #200]	; c1032e8 <sys_init+0x124>
 c10321c:	e5832000 	str	r2, [r3]
	CLKSLOW  = 0x8;         // MCLK_SLOW = 500 KHz
 c103220:	e59f30c4 	ldr	r3, [pc, #196]	; c1032ec <sys_init+0x128>
 c103224:	e3a02008 	mov	r2, #8
 c103228:	e5832000 	str	r2, [r3]
	CLKCON   = 0x7FF8;         // modo NORMAL y reloj distribuido a todos los controladores
 c10322c:	e59f30bc 	ldr	r3, [pc, #188]	; c1032f0 <sys_init+0x12c>
 c103230:	e59f20bc 	ldr	r2, [pc, #188]	; c1032f4 <sys_init+0x130>
 c103234:	e5832000 	str	r2, [r3]

	// Configuracion del arbitro de bus
	SBUSCON = 0x8000001B;          // prioridad fija por defecto LCD > ZDMA > BDMA > IRQ
 c103238:	e3a03771 	mov	r3, #29622272	; 0x1c40000
 c10323c:	e3a0216e 	mov	r2, #-2147483621	; 0x8000001b
 c103240:	e5832000 	str	r2, [r3]

	// Configuracion de cache
	SYSCFG = 0x0;           // deshabilitada
 c103244:	e3a03507 	mov	r3, #29360128	; 0x1c00000
 c103248:	e3a02000 	mov	r2, #0
 c10324c:	e5832000 	str	r2, [r3]

	// Configuacion del controlador de interrupciones
	I_PMST = 0x1F1B;           // prioridades fijas por defecto
 c103250:	e59f30a0 	ldr	r3, [pc, #160]	; c1032f8 <sys_init+0x134>
 c103254:	e59f20a0 	ldr	r2, [pc, #160]	; c1032fc <sys_init+0x138>
 c103258:	e5832000 	str	r2, [r3]
	I_PSLV = 0x1B1B1B1B;
 c10325c:	e59f309c 	ldr	r3, [pc, #156]	; c103300 <sys_init+0x13c>
 c103260:	e59f209c 	ldr	r2, [pc, #156]	; c103304 <sys_init+0x140>
 c103264:	e5832000 	str	r2, [r3]
	INTMOD = 0x0;           // todas las interrupciones en modo IRQ
 c103268:	e59f3098 	ldr	r3, [pc, #152]	; c103308 <sys_init+0x144>
 c10326c:	e3a02000 	mov	r2, #0
 c103270:	e5832000 	str	r2, [r3]
	install_dummy_isr();    // instala rutinas de tratamiento por defecto para todas las interrupciones
 c103274:	eb000089 	bl	c1034a0 <install_dummy_isr>
	EXTINTPND = 0xF;        // borra las interrupciones externas pendientes por linea EINT7..4
 c103278:	e59f308c 	ldr	r3, [pc, #140]	; c10330c <sys_init+0x148>
 c10327c:	e3a0200f 	mov	r2, #15
 c103280:	e5832000 	str	r2, [r3]
	I_ISPC = 0x01E00024;           // borra todas las interrupciones pendientes
 c103284:	e59f3084 	ldr	r3, [pc, #132]	; c103310 <sys_init+0x14c>
 c103288:	e59f2080 	ldr	r2, [pc, #128]	; c103310 <sys_init+0x14c>
 c10328c:	e5832000 	str	r2, [r3]
	INTCON = 0x1;           // IRQ vectorizadas, linea IRQ activada, linea FIQ desactivada
 c103290:	e3a0361e 	mov	r3, #31457280	; 0x1e00000
 c103294:	e3a02001 	mov	r2, #1
 c103298:	e5832000 	str	r2, [r3]
	SET_IRQFLAG( 0 );       // Habilita IRQ en el procesador
 c10329c:	e10f0000 	mrs	r0, CPSR
 c1032a0:	e3c00080 	bic	r0, r0, #128	; 0x80
 c1032a4:	e3800000 	orr	r0, r0, #0
 c1032a8:	e121f000 	msr	CPSR_c, r0
	SET_FIQFLAG( 1 );       // Deshabilita FIQ en el procesador
 c1032ac:	e10f0000 	mrs	r0, CPSR
 c1032b0:	e3c00040 	bic	r0, r0, #64	; 0x40
 c1032b4:	e3800040 	orr	r0, r0, #64	; 0x40
 c1032b8:	e121f000 	msr	CPSR_c, r0

	// Configuracion de puertos
	port_init();
 c1032bc:	eb000014 	bl	c103314 <port_init>

	// Configuracion de dispositivos
	segs_init();
 c1032c0:	ebffff8a 	bl	c1030f0 <segs_init>
	uart0_init();
 c1032c4:	eb0005ae 	bl	c104984 <uart0_init>

	show_sys_info();
 c1032c8:	eb00027a 	bl	c103cb8 <show_sys_info>
}
 c1032cc:	e24bd00c 	sub	sp, fp, #12
 c1032d0:	e89d6800 	ldm	sp, {fp, sp, lr}
 c1032d4:	e12fff1e 	bx	lr
 c1032d8:	01d30000 	.word	0x01d30000
 c1032dc:	01e0000c 	.word	0x01e0000c
 c1032e0:	01d8000c 	.word	0x01d8000c
 c1032e4:	00000fff 	.word	0x00000fff
 c1032e8:	00038021 	.word	0x00038021
 c1032ec:	01d80008 	.word	0x01d80008
 c1032f0:	01d80004 	.word	0x01d80004
 c1032f4:	00007ff8 	.word	0x00007ff8
 c1032f8:	01e00014 	.word	0x01e00014
 c1032fc:	00001f1b 	.word	0x00001f1b
 c103300:	01e00010 	.word	0x01e00010
 c103304:	1b1b1b1b 	.word	0x1b1b1b1b
 c103308:	01e00008 	.word	0x01e00008
 c10330c:	01d20054 	.word	0x01d20054
 c103310:	01e00024 	.word	0x01e00024

0c103314 <port_init>:

static inline void port_init( void )
{
 c103314:	e1a0c00d 	mov	ip, sp
 c103318:	e92dd800 	push	{fp, ip, lr, pc}
 c10331c:	e24cb004 	sub	fp, ip, #4
	PDATA = ~0;
 c103320:	e59f3100 	ldr	r3, [pc, #256]	; c103428 <port_init+0x114>
 c103324:	e3e02000 	mvn	r2, #0
 c103328:	e5832000 	str	r2, [r3]
	PCONA = 0xFE;
 c10332c:	e59f30f8 	ldr	r3, [pc, #248]	; c10342c <port_init+0x118>
 c103330:	e3a020fe 	mov	r2, #254	; 0xfe
 c103334:	e5832000 	str	r2, [r3]

	PDATB = ~0;
 c103338:	e59f30f0 	ldr	r3, [pc, #240]	; c103430 <port_init+0x11c>
 c10333c:	e3e02000 	mvn	r2, #0
 c103340:	e5832000 	str	r2, [r3]
	PCONB = 0x14F;
 c103344:	e59f30e8 	ldr	r3, [pc, #232]	; c103434 <port_init+0x120>
 c103348:	e59f20e8 	ldr	r2, [pc, #232]	; c103438 <port_init+0x124>
 c10334c:	e5832000 	str	r2, [r3]

	PDATC = ~0;
 c103350:	e59f30e4 	ldr	r3, [pc, #228]	; c10343c <port_init+0x128>
 c103354:	e3e02000 	mvn	r2, #0
 c103358:	e5832000 	str	r2, [r3]
	PCONC = 0x5FF555FF;
 c10335c:	e59f30dc 	ldr	r3, [pc, #220]	; c103440 <port_init+0x12c>
 c103360:	e59f20dc 	ldr	r2, [pc, #220]	; c103444 <port_init+0x130>
 c103364:	e5832000 	str	r2, [r3]
	PUPC  = 0x94FB;
 c103368:	e59f30d8 	ldr	r3, [pc, #216]	; c103448 <port_init+0x134>
 c10336c:	e59f20d8 	ldr	r2, [pc, #216]	; c10344c <port_init+0x138>
 c103370:	e5832000 	str	r2, [r3]

	PDATD = ~0;
 c103374:	e59f30d4 	ldr	r3, [pc, #212]	; c103450 <port_init+0x13c>
 c103378:	e3e02000 	mvn	r2, #0
 c10337c:	e5832000 	str	r2, [r3]
	PCOND = 0xAAAA;
 c103380:	e59f30cc 	ldr	r3, [pc, #204]	; c103454 <port_init+0x140>
 c103384:	e59f20cc 	ldr	r2, [pc, #204]	; c103458 <port_init+0x144>
 c103388:	e5832000 	str	r2, [r3]
	PUPD  = 0xFF;
 c10338c:	e59f30c8 	ldr	r3, [pc, #200]	; c10345c <port_init+0x148>
 c103390:	e3a020ff 	mov	r2, #255	; 0xff
 c103394:	e5832000 	str	r2, [r3]

	PDATE = ~0;
 c103398:	e59f30c0 	ldr	r3, [pc, #192]	; c103460 <port_init+0x14c>
 c10339c:	e3e02000 	mvn	r2, #0
 c1033a0:	e5832000 	str	r2, [r3]
	PCONE = 0x255A9;
 c1033a4:	e59f30b8 	ldr	r3, [pc, #184]	; c103464 <port_init+0x150>
 c1033a8:	e59f20b8 	ldr	r2, [pc, #184]	; c103468 <port_init+0x154>
 c1033ac:	e5832000 	str	r2, [r3]
	PUPE  = 0x1FB;
 c1033b0:	e59f30b4 	ldr	r3, [pc, #180]	; c10346c <port_init+0x158>
 c1033b4:	e59f20b4 	ldr	r2, [pc, #180]	; c103470 <port_init+0x15c>
 c1033b8:	e5832000 	str	r2, [r3]

	PDATF = ~0;
 c1033bc:	e59f30b0 	ldr	r3, [pc, #176]	; c103474 <port_init+0x160>
 c1033c0:	e3e02000 	mvn	r2, #0
 c1033c4:	e5832000 	str	r2, [r3]
	PCONF = 0x251A;
 c1033c8:	e59f30a8 	ldr	r3, [pc, #168]	; c103478 <port_init+0x164>
 c1033cc:	e59f20a8 	ldr	r2, [pc, #168]	; c10347c <port_init+0x168>
 c1033d0:	e5832000 	str	r2, [r3]
	PUPF  = 0x74;
 c1033d4:	e59f30a4 	ldr	r3, [pc, #164]	; c103480 <port_init+0x16c>
 c1033d8:	e3a02074 	mov	r2, #116	; 0x74
 c1033dc:	e5832000 	str	r2, [r3]

	PDATG = ~0;
 c1033e0:	e59f309c 	ldr	r3, [pc, #156]	; c103484 <port_init+0x170>
 c1033e4:	e3e02000 	mvn	r2, #0
 c1033e8:	e5832000 	str	r2, [r3]
	PCONG = 0xF5FF;
 c1033ec:	e59f3094 	ldr	r3, [pc, #148]	; c103488 <port_init+0x174>
 c1033f0:	e59f2094 	ldr	r2, [pc, #148]	; c10348c <port_init+0x178>
 c1033f4:	e5832000 	str	r2, [r3]
	PUPG  = 0x30;
 c1033f8:	e59f3090 	ldr	r3, [pc, #144]	; c103490 <port_init+0x17c>
 c1033fc:	e3a02030 	mov	r2, #48	; 0x30
 c103400:	e5832000 	str	r2, [r3]

	SPUCR = 0x7;
 c103404:	e59f3088 	ldr	r3, [pc, #136]	; c103494 <port_init+0x180>
 c103408:	e3a02007 	mov	r2, #7
 c10340c:	e5832000 	str	r2, [r3]

	EXTINT = 0x22000220;
 c103410:	e59f3080 	ldr	r3, [pc, #128]	; c103498 <port_init+0x184>
 c103414:	e59f2080 	ldr	r2, [pc, #128]	; c10349c <port_init+0x188>
 c103418:	e5832000 	str	r2, [r3]
}
 c10341c:	e24bd00c 	sub	sp, fp, #12
 c103420:	e89d6800 	ldm	sp, {fp, sp, lr}
 c103424:	e12fff1e 	bx	lr
 c103428:	01d20004 	.word	0x01d20004
 c10342c:	01d20000 	.word	0x01d20000
 c103430:	01d2000c 	.word	0x01d2000c
 c103434:	01d20008 	.word	0x01d20008
 c103438:	0000014f 	.word	0x0000014f
 c10343c:	01d20014 	.word	0x01d20014
 c103440:	01d20010 	.word	0x01d20010
 c103444:	5ff555ff 	.word	0x5ff555ff
 c103448:	01d20018 	.word	0x01d20018
 c10344c:	000094fb 	.word	0x000094fb
 c103450:	01d20020 	.word	0x01d20020
 c103454:	01d2001c 	.word	0x01d2001c
 c103458:	0000aaaa 	.word	0x0000aaaa
 c10345c:	01d20024 	.word	0x01d20024
 c103460:	01d2002c 	.word	0x01d2002c
 c103464:	01d20028 	.word	0x01d20028
 c103468:	000255a9 	.word	0x000255a9
 c10346c:	01d20030 	.word	0x01d20030
 c103470:	000001fb 	.word	0x000001fb
 c103474:	01d20038 	.word	0x01d20038
 c103478:	01d20034 	.word	0x01d20034
 c10347c:	0000251a 	.word	0x0000251a
 c103480:	01d2003c 	.word	0x01d2003c
 c103484:	01d20044 	.word	0x01d20044
 c103488:	01d20040 	.word	0x01d20040
 c10348c:	0000f5ff 	.word	0x0000f5ff
 c103490:	01d20048 	.word	0x01d20048
 c103494:	01d2004c 	.word	0x01d2004c
 c103498:	01d20050 	.word	0x01d20050
 c10349c:	22000220 	.word	0x22000220

0c1034a0 <install_dummy_isr>:

static inline void install_dummy_isr( void )
{
 c1034a0:	e1a0c00d 	mov	ip, sp
 c1034a4:	e92dd800 	push	{fp, ip, lr, pc}
 c1034a8:	e24cb004 	sub	fp, ip, #4
	pISR_SWI = (uint32)isr_SWI_dummy;
 c1034ac:	e59f3184 	ldr	r3, [pc, #388]	; c103638 <install_dummy_isr+0x198>
 c1034b0:	e59f2184 	ldr	r2, [pc, #388]	; c10363c <install_dummy_isr+0x19c>
 c1034b4:	e5832000 	str	r2, [r3]
	pISR_UNDEF = (uint32)isr_UNDEF_dummy;
 c1034b8:	e59f3180 	ldr	r3, [pc, #384]	; c103640 <install_dummy_isr+0x1a0>
 c1034bc:	e59f2180 	ldr	r2, [pc, #384]	; c103644 <install_dummy_isr+0x1a4>
 c1034c0:	e5832000 	str	r2, [r3]
	pISR_IRQ= (uint32)isr_IRQ_dummy;
 c1034c4:	e59f317c 	ldr	r3, [pc, #380]	; c103648 <install_dummy_isr+0x1a8>
 c1034c8:	e59f217c 	ldr	r2, [pc, #380]	; c10364c <install_dummy_isr+0x1ac>
 c1034cc:	e5832000 	str	r2, [r3]
	pISR_FIQ = (uint32)isr_FIQ_dummy;
 c1034d0:	e59f3178 	ldr	r3, [pc, #376]	; c103650 <install_dummy_isr+0x1b0>
 c1034d4:	e59f2178 	ldr	r2, [pc, #376]	; c103654 <install_dummy_isr+0x1b4>
 c1034d8:	e5832000 	str	r2, [r3]
	pISR_PABORT = (uint32)isr_PABORT_dummy;
 c1034dc:	e59f3174 	ldr	r3, [pc, #372]	; c103658 <install_dummy_isr+0x1b8>
 c1034e0:	e59f2174 	ldr	r2, [pc, #372]	; c10365c <install_dummy_isr+0x1bc>
 c1034e4:	e5832000 	str	r2, [r3]
	pISR_DABORT = (uint32)isr_DABORT_dummy;
 c1034e8:	e59f3170 	ldr	r3, [pc, #368]	; c103660 <install_dummy_isr+0x1c0>
 c1034ec:	e59f2170 	ldr	r2, [pc, #368]	; c103664 <install_dummy_isr+0x1c4>
 c1034f0:	e5832000 	str	r2, [r3]
	pISR_ADC = (uint32)isr_ADC_dummy;
 c1034f4:	e59f316c 	ldr	r3, [pc, #364]	; c103668 <install_dummy_isr+0x1c8>
 c1034f8:	e59f216c 	ldr	r2, [pc, #364]	; c10366c <install_dummy_isr+0x1cc>
 c1034fc:	e5832000 	str	r2, [r3]
	pISR_RTC = (uint32)isr_RTC_dummy;
 c103500:	e59f3168 	ldr	r3, [pc, #360]	; c103670 <install_dummy_isr+0x1d0>
 c103504:	e59f2168 	ldr	r2, [pc, #360]	; c103674 <install_dummy_isr+0x1d4>
 c103508:	e5832000 	str	r2, [r3]
	pISR_UTXD1 = (uint32)isr_UTXD1_dummy;
 c10350c:	e59f3164 	ldr	r3, [pc, #356]	; c103678 <install_dummy_isr+0x1d8>
 c103510:	e59f2164 	ldr	r2, [pc, #356]	; c10367c <install_dummy_isr+0x1dc>
 c103514:	e5832000 	str	r2, [r3]
	pISR_UTXD0 = (uint32)isr_UTXD0_dummy;
 c103518:	e59f3160 	ldr	r3, [pc, #352]	; c103680 <install_dummy_isr+0x1e0>
 c10351c:	e59f2160 	ldr	r2, [pc, #352]	; c103684 <install_dummy_isr+0x1e4>
 c103520:	e5832000 	str	r2, [r3]
	pISR_SIO = (uint32)isr_SIO_dummy;
 c103524:	e59f315c 	ldr	r3, [pc, #348]	; c103688 <install_dummy_isr+0x1e8>
 c103528:	e59f215c 	ldr	r2, [pc, #348]	; c10368c <install_dummy_isr+0x1ec>
 c10352c:	e5832000 	str	r2, [r3]
	pISR_IIC = (uint32)isr_IIC_dummy;
 c103530:	e59f3158 	ldr	r3, [pc, #344]	; c103690 <install_dummy_isr+0x1f0>
 c103534:	e59f2158 	ldr	r2, [pc, #344]	; c103694 <install_dummy_isr+0x1f4>
 c103538:	e5832000 	str	r2, [r3]
	pISR_URXD1 = (uint32)isr_URXD1_dummy;
 c10353c:	e59f3154 	ldr	r3, [pc, #340]	; c103698 <install_dummy_isr+0x1f8>
 c103540:	e59f2154 	ldr	r2, [pc, #340]	; c10369c <install_dummy_isr+0x1fc>
 c103544:	e5832000 	str	r2, [r3]
	pISR_URXD0 = (uint32)isr_URXD0_dummy;
 c103548:	e59f3150 	ldr	r3, [pc, #336]	; c1036a0 <install_dummy_isr+0x200>
 c10354c:	e59f2150 	ldr	r2, [pc, #336]	; c1036a4 <install_dummy_isr+0x204>
 c103550:	e5832000 	str	r2, [r3]
	pISR_TIMER5 = (uint32)isr_TIMER5_dummy;
 c103554:	e59f314c 	ldr	r3, [pc, #332]	; c1036a8 <install_dummy_isr+0x208>
 c103558:	e59f214c 	ldr	r2, [pc, #332]	; c1036ac <install_dummy_isr+0x20c>
 c10355c:	e5832000 	str	r2, [r3]
	pISR_TIMER4 = (uint32)isr_TIMER4_dummy;
 c103560:	e59f3148 	ldr	r3, [pc, #328]	; c1036b0 <install_dummy_isr+0x210>
 c103564:	e59f2148 	ldr	r2, [pc, #328]	; c1036b4 <install_dummy_isr+0x214>
 c103568:	e5832000 	str	r2, [r3]
	pISR_TIMER3 = (uint32)isr_TIMER3_dummy;
 c10356c:	e59f3144 	ldr	r3, [pc, #324]	; c1036b8 <install_dummy_isr+0x218>
 c103570:	e59f2144 	ldr	r2, [pc, #324]	; c1036bc <install_dummy_isr+0x21c>
 c103574:	e5832000 	str	r2, [r3]
	pISR_TIMER2 = (uint32)isr_TIMER2_dummy;
 c103578:	e59f3140 	ldr	r3, [pc, #320]	; c1036c0 <install_dummy_isr+0x220>
 c10357c:	e59f2140 	ldr	r2, [pc, #320]	; c1036c4 <install_dummy_isr+0x224>
 c103580:	e5832000 	str	r2, [r3]
	pISR_TIMER1 = (uint32)isr_TIMER1_dummy;
 c103584:	e59f313c 	ldr	r3, [pc, #316]	; c1036c8 <install_dummy_isr+0x228>
 c103588:	e59f213c 	ldr	r2, [pc, #316]	; c1036cc <install_dummy_isr+0x22c>
 c10358c:	e5832000 	str	r2, [r3]
	pISR_TIMER0 = (uint32)isr_TIMER0_dummy;
 c103590:	e59f3138 	ldr	r3, [pc, #312]	; c1036d0 <install_dummy_isr+0x230>
 c103594:	e59f2138 	ldr	r2, [pc, #312]	; c1036d4 <install_dummy_isr+0x234>
 c103598:	e5832000 	str	r2, [r3]
	pISR_UERR01 = (uint32)isr_UERR01_dummy;
 c10359c:	e59f3134 	ldr	r3, [pc, #308]	; c1036d8 <install_dummy_isr+0x238>
 c1035a0:	e59f2134 	ldr	r2, [pc, #308]	; c1036dc <install_dummy_isr+0x23c>
 c1035a4:	e5832000 	str	r2, [r3]
	pISR_WDT = (uint32)isr_WDT_dummy;
 c1035a8:	e59f3130 	ldr	r3, [pc, #304]	; c1036e0 <install_dummy_isr+0x240>
 c1035ac:	e59f2130 	ldr	r2, [pc, #304]	; c1036e4 <install_dummy_isr+0x244>
 c1035b0:	e5832000 	str	r2, [r3]
	pISR_BDMA1 = (uint32)isr_BDMA1_dummy;
 c1035b4:	e59f312c 	ldr	r3, [pc, #300]	; c1036e8 <install_dummy_isr+0x248>
 c1035b8:	e59f212c 	ldr	r2, [pc, #300]	; c1036ec <install_dummy_isr+0x24c>
 c1035bc:	e5832000 	str	r2, [r3]
	pISR_BDMA0 = (uint32)isr_BDMA0_dummy;
 c1035c0:	e59f3128 	ldr	r3, [pc, #296]	; c1036f0 <install_dummy_isr+0x250>
 c1035c4:	e59f2128 	ldr	r2, [pc, #296]	; c1036f4 <install_dummy_isr+0x254>
 c1035c8:	e5832000 	str	r2, [r3]
	pISR_ZDMA1 = (uint32) isr_ZDMA1_dummy;
 c1035cc:	e59f3124 	ldr	r3, [pc, #292]	; c1036f8 <install_dummy_isr+0x258>
 c1035d0:	e59f2124 	ldr	r2, [pc, #292]	; c1036fc <install_dummy_isr+0x25c>
 c1035d4:	e5832000 	str	r2, [r3]
	pISR_ZDMA0 = (uint32)isr_ZDMA0_dummy;
 c1035d8:	e59f3120 	ldr	r3, [pc, #288]	; c103700 <install_dummy_isr+0x260>
 c1035dc:	e59f2120 	ldr	r2, [pc, #288]	; c103704 <install_dummy_isr+0x264>
 c1035e0:	e5832000 	str	r2, [r3]
	pISR_TICK = (uint32) isr_TICK_dummy;
 c1035e4:	e59f311c 	ldr	r3, [pc, #284]	; c103708 <install_dummy_isr+0x268>
 c1035e8:	e59f211c 	ldr	r2, [pc, #284]	; c10370c <install_dummy_isr+0x26c>
 c1035ec:	e5832000 	str	r2, [r3]
	pISR_PB = (uint32)isr_PB_dummy;
 c1035f0:	e59f3118 	ldr	r3, [pc, #280]	; c103710 <install_dummy_isr+0x270>
 c1035f4:	e59f2118 	ldr	r2, [pc, #280]	; c103714 <install_dummy_isr+0x274>
 c1035f8:	e5832000 	str	r2, [r3]
	pISR_ETHERNET = (uint32)isr_ETHERNET_dummy;
 c1035fc:	e59f3114 	ldr	r3, [pc, #276]	; c103718 <install_dummy_isr+0x278>
 c103600:	e59f2114 	ldr	r2, [pc, #276]	; c10371c <install_dummy_isr+0x27c>
 c103604:	e5832000 	str	r2, [r3]
	pISR_TS = (uint32)isr_TS_dummy;
 c103608:	e59f3110 	ldr	r3, [pc, #272]	; c103720 <install_dummy_isr+0x280>
 c10360c:	e59f2110 	ldr	r2, [pc, #272]	; c103724 <install_dummy_isr+0x284>
 c103610:	e5832000 	str	r2, [r3]
	pISR_KEYPAD = (uint32)isr_KEYPAD_dummy;
 c103614:	e59f310c 	ldr	r3, [pc, #268]	; c103728 <install_dummy_isr+0x288>
 c103618:	e59f210c 	ldr	r2, [pc, #268]	; c10372c <install_dummy_isr+0x28c>
 c10361c:	e5832000 	str	r2, [r3]
	pISR_USB = (uint32)isr_USB_dummy;
 c103620:	e59f3108 	ldr	r3, [pc, #264]	; c103730 <install_dummy_isr+0x290>
 c103624:	e59f2108 	ldr	r2, [pc, #264]	; c103734 <install_dummy_isr+0x294>
 c103628:	e5832000 	str	r2, [r3]
}
 c10362c:	e24bd00c 	sub	sp, fp, #12
 c103630:	e89d6800 	ldm	sp, {fp, sp, lr}
 c103634:	e12fff1e 	bx	lr
 c103638:	0c7fff08 	.word	0x0c7fff08
 c10363c:	0c103738 	.word	0x0c103738
 c103640:	0c7fff04 	.word	0x0c7fff04
 c103644:	0c103764 	.word	0x0c103764
 c103648:	0c7fff18 	.word	0x0c7fff18
 c10364c:	0c103790 	.word	0x0c103790
 c103650:	0c7fff1c 	.word	0x0c7fff1c
 c103654:	0c1037bc 	.word	0x0c1037bc
 c103658:	0c7fff0c 	.word	0x0c7fff0c
 c10365c:	0c1037e8 	.word	0x0c1037e8
 c103660:	0c7fff10 	.word	0x0c7fff10
 c103664:	0c103814 	.word	0x0c103814
 c103668:	0c7fff20 	.word	0x0c7fff20
 c10366c:	0c103840 	.word	0x0c103840
 c103670:	0c7fff24 	.word	0x0c7fff24
 c103674:	0c10386c 	.word	0x0c10386c
 c103678:	0c7fff28 	.word	0x0c7fff28
 c10367c:	0c103898 	.word	0x0c103898
 c103680:	0c7fff2c 	.word	0x0c7fff2c
 c103684:	0c1038c4 	.word	0x0c1038c4
 c103688:	0c7fff30 	.word	0x0c7fff30
 c10368c:	0c1038f0 	.word	0x0c1038f0
 c103690:	0c7fff34 	.word	0x0c7fff34
 c103694:	0c10391c 	.word	0x0c10391c
 c103698:	0c7fff38 	.word	0x0c7fff38
 c10369c:	0c103948 	.word	0x0c103948
 c1036a0:	0c7fff3c 	.word	0x0c7fff3c
 c1036a4:	0c103974 	.word	0x0c103974
 c1036a8:	0c7fff40 	.word	0x0c7fff40
 c1036ac:	0c1039a0 	.word	0x0c1039a0
 c1036b0:	0c7fff44 	.word	0x0c7fff44
 c1036b4:	0c1039cc 	.word	0x0c1039cc
 c1036b8:	0c7fff48 	.word	0x0c7fff48
 c1036bc:	0c1039f8 	.word	0x0c1039f8
 c1036c0:	0c7fff4c 	.word	0x0c7fff4c
 c1036c4:	0c103a24 	.word	0x0c103a24
 c1036c8:	0c7fff50 	.word	0x0c7fff50
 c1036cc:	0c103a50 	.word	0x0c103a50
 c1036d0:	0c7fff54 	.word	0x0c7fff54
 c1036d4:	0c103a7c 	.word	0x0c103a7c
 c1036d8:	0c7fff58 	.word	0x0c7fff58
 c1036dc:	0c103aa8 	.word	0x0c103aa8
 c1036e0:	0c7fff5c 	.word	0x0c7fff5c
 c1036e4:	0c103ad4 	.word	0x0c103ad4
 c1036e8:	0c7fff60 	.word	0x0c7fff60
 c1036ec:	0c103b00 	.word	0x0c103b00
 c1036f0:	0c7fff64 	.word	0x0c7fff64
 c1036f4:	0c103b2c 	.word	0x0c103b2c
 c1036f8:	0c7fff68 	.word	0x0c7fff68
 c1036fc:	0c103b58 	.word	0x0c103b58
 c103700:	0c7fff6c 	.word	0x0c7fff6c
 c103704:	0c103b84 	.word	0x0c103b84
 c103708:	0c7fff70 	.word	0x0c7fff70
 c10370c:	0c103bb0 	.word	0x0c103bb0
 c103710:	0c7fff74 	.word	0x0c7fff74
 c103714:	0c103bdc 	.word	0x0c103bdc
 c103718:	0c7fff78 	.word	0x0c7fff78
 c10371c:	0c103c08 	.word	0x0c103c08
 c103720:	0c7fff7c 	.word	0x0c7fff7c
 c103724:	0c103c34 	.word	0x0c103c34
 c103728:	0c7fff80 	.word	0x0c7fff80
 c10372c:	0c103c60 	.word	0x0c103c60
 c103730:	0c7fff84 	.word	0x0c7fff84
 c103734:	0c103c8c 	.word	0x0c103c8c

0c103738 <isr_SWI_dummy>:

void isr_SWI_dummy( void )
{
 c103738:	e52dc004 	push	{ip}		; (str ip, [sp, #-4]!)
 c10373c:	e1a0c00d 	mov	ip, sp
 c103740:	e92dd80f 	push	{r0, r1, r2, r3, fp, ip, lr, pc}
 c103744:	e24cb004 	sub	fp, ip, #4
	uart0_puts( "\n\n*** ERROR FATAL: ejecutando isr_SWI_dummy" );
 c103748:	e59f0010 	ldr	r0, [pc, #16]	; c103760 <isr_SWI_dummy+0x28>
 c10374c:	eb0004cb 	bl	c104a80 <uart0_puts>
	SEGS = 0x75;
 c103750:	e3a03785 	mov	r3, #34865152	; 0x2140000
 c103754:	e3a02075 	mov	r2, #117	; 0x75
 c103758:	e5c32000 	strb	r2, [r3]
	while( 1 );
 c10375c:	eafffffe 	b	c10375c <isr_SWI_dummy+0x24>
 c103760:	0c105bf4 	.word	0x0c105bf4

0c103764 <isr_UNDEF_dummy>:
}

void isr_UNDEF_dummy( void )
{
 c103764:	e52dc004 	push	{ip}		; (str ip, [sp, #-4]!)
 c103768:	e1a0c00d 	mov	ip, sp
 c10376c:	e92dd80f 	push	{r0, r1, r2, r3, fp, ip, lr, pc}
 c103770:	e24cb004 	sub	fp, ip, #4
	uart0_puts( "\n\n*** ERROR FATAL: ejecutando isr_UNDEF_dummy" );
 c103774:	e59f0010 	ldr	r0, [pc, #16]	; c10378c <isr_UNDEF_dummy+0x28>
 c103778:	eb0004c0 	bl	c104a80 <uart0_puts>
	SEGS = 0x75;
 c10377c:	e3a03785 	mov	r3, #34865152	; 0x2140000
 c103780:	e3a02075 	mov	r2, #117	; 0x75
 c103784:	e5c32000 	strb	r2, [r3]
	while( 1 );
 c103788:	eafffffe 	b	c103788 <isr_UNDEF_dummy+0x24>
 c10378c:	0c105c20 	.word	0x0c105c20

0c103790 <isr_IRQ_dummy>:
}

void isr_IRQ_dummy( void )
{
 c103790:	e52dc004 	push	{ip}		; (str ip, [sp, #-4]!)
 c103794:	e1a0c00d 	mov	ip, sp
 c103798:	e92dd80f 	push	{r0, r1, r2, r3, fp, ip, lr, pc}
 c10379c:	e24cb004 	sub	fp, ip, #4
	uart0_puts( "\n\n*** ERROR FATAL: ejecutando isr_IRQ_dummy" );
 c1037a0:	e59f0010 	ldr	r0, [pc, #16]	; c1037b8 <isr_IRQ_dummy+0x28>
 c1037a4:	eb0004b5 	bl	c104a80 <uart0_puts>
	SEGS = 0x75;
 c1037a8:	e3a03785 	mov	r3, #34865152	; 0x2140000
 c1037ac:	e3a02075 	mov	r2, #117	; 0x75
 c1037b0:	e5c32000 	strb	r2, [r3]
	while( 1 );
 c1037b4:	eafffffe 	b	c1037b4 <isr_IRQ_dummy+0x24>
 c1037b8:	0c105c50 	.word	0x0c105c50

0c1037bc <isr_FIQ_dummy>:
}

void isr_FIQ_dummy( void )
{
 c1037bc:	e52dc004 	push	{ip}		; (str ip, [sp, #-4]!)
 c1037c0:	e1a0c00d 	mov	ip, sp
 c1037c4:	e92dd80f 	push	{r0, r1, r2, r3, fp, ip, lr, pc}
 c1037c8:	e24cb004 	sub	fp, ip, #4
	uart0_puts( "\n\n*** ERROR FATAL: ejecutando isr_FIQ_dummy" );
 c1037cc:	e59f0010 	ldr	r0, [pc, #16]	; c1037e4 <isr_FIQ_dummy+0x28>
 c1037d0:	eb0004aa 	bl	c104a80 <uart0_puts>
	SEGS = 0x75;
 c1037d4:	e3a03785 	mov	r3, #34865152	; 0x2140000
 c1037d8:	e3a02075 	mov	r2, #117	; 0x75
 c1037dc:	e5c32000 	strb	r2, [r3]
	while( 1 );
 c1037e0:	eafffffe 	b	c1037e0 <isr_FIQ_dummy+0x24>
 c1037e4:	0c105c7c 	.word	0x0c105c7c

0c1037e8 <isr_PABORT_dummy>:
}

void isr_PABORT_dummy( void )
{
 c1037e8:	e52dc004 	push	{ip}		; (str ip, [sp, #-4]!)
 c1037ec:	e1a0c00d 	mov	ip, sp
 c1037f0:	e92dd80f 	push	{r0, r1, r2, r3, fp, ip, lr, pc}
 c1037f4:	e24cb004 	sub	fp, ip, #4
	uart0_puts( "\n\n*** ERROR FATAL: ejecutando isr_PABORT_dummy" );
 c1037f8:	e59f0010 	ldr	r0, [pc, #16]	; c103810 <isr_PABORT_dummy+0x28>
 c1037fc:	eb00049f 	bl	c104a80 <uart0_puts>
	SEGS = 0x75;
 c103800:	e3a03785 	mov	r3, #34865152	; 0x2140000
 c103804:	e3a02075 	mov	r2, #117	; 0x75
 c103808:	e5c32000 	strb	r2, [r3]
	while( 1 );
 c10380c:	eafffffe 	b	c10380c <isr_PABORT_dummy+0x24>
 c103810:	0c105ca8 	.word	0x0c105ca8

0c103814 <isr_DABORT_dummy>:
}

void isr_DABORT_dummy( void )
{
 c103814:	e52dc004 	push	{ip}		; (str ip, [sp, #-4]!)
 c103818:	e1a0c00d 	mov	ip, sp
 c10381c:	e92dd80f 	push	{r0, r1, r2, r3, fp, ip, lr, pc}
 c103820:	e24cb004 	sub	fp, ip, #4
	uart0_puts( "\n\n*** ERROR FATAL: ejecutando isr_DABORT_dummy" );
 c103824:	e59f0010 	ldr	r0, [pc, #16]	; c10383c <isr_DABORT_dummy+0x28>
 c103828:	eb000494 	bl	c104a80 <uart0_puts>
	SEGS = 0x75;
 c10382c:	e3a03785 	mov	r3, #34865152	; 0x2140000
 c103830:	e3a02075 	mov	r2, #117	; 0x75
 c103834:	e5c32000 	strb	r2, [r3]
	while( 1 );
 c103838:	eafffffe 	b	c103838 <isr_DABORT_dummy+0x24>
 c10383c:	0c105cd8 	.word	0x0c105cd8

0c103840 <isr_ADC_dummy>:
}

void isr_ADC_dummy( void )
{
 c103840:	e52dc004 	push	{ip}		; (str ip, [sp, #-4]!)
 c103844:	e1a0c00d 	mov	ip, sp
 c103848:	e92dd80f 	push	{r0, r1, r2, r3, fp, ip, lr, pc}
 c10384c:	e24cb004 	sub	fp, ip, #4
	uart0_puts( "\n\n*** ERROR FATAL: ejecutando isr_ADC_dummy" );
 c103850:	e59f0010 	ldr	r0, [pc, #16]	; c103868 <isr_ADC_dummy+0x28>
 c103854:	eb000489 	bl	c104a80 <uart0_puts>
	SEGS = 0x75;
 c103858:	e3a03785 	mov	r3, #34865152	; 0x2140000
 c10385c:	e3a02075 	mov	r2, #117	; 0x75
 c103860:	e5c32000 	strb	r2, [r3]
	while( 1 );
 c103864:	eafffffe 	b	c103864 <isr_ADC_dummy+0x24>
 c103868:	0c105d08 	.word	0x0c105d08

0c10386c <isr_RTC_dummy>:
}

void isr_RTC_dummy( void )
{
 c10386c:	e52dc004 	push	{ip}		; (str ip, [sp, #-4]!)
 c103870:	e1a0c00d 	mov	ip, sp
 c103874:	e92dd80f 	push	{r0, r1, r2, r3, fp, ip, lr, pc}
 c103878:	e24cb004 	sub	fp, ip, #4
	uart0_puts( "\n\n*** ERROR FATAL: ejecutando isr_RTC_dummy" );
 c10387c:	e59f0010 	ldr	r0, [pc, #16]	; c103894 <isr_RTC_dummy+0x28>
 c103880:	eb00047e 	bl	c104a80 <uart0_puts>
	SEGS = 0x75;
 c103884:	e3a03785 	mov	r3, #34865152	; 0x2140000
 c103888:	e3a02075 	mov	r2, #117	; 0x75
 c10388c:	e5c32000 	strb	r2, [r3]
	while( 1 );
 c103890:	eafffffe 	b	c103890 <isr_RTC_dummy+0x24>
 c103894:	0c105d34 	.word	0x0c105d34

0c103898 <isr_UTXD1_dummy>:
}

void isr_UTXD1_dummy( void )
{
 c103898:	e52dc004 	push	{ip}		; (str ip, [sp, #-4]!)
 c10389c:	e1a0c00d 	mov	ip, sp
 c1038a0:	e92dd80f 	push	{r0, r1, r2, r3, fp, ip, lr, pc}
 c1038a4:	e24cb004 	sub	fp, ip, #4
	uart0_puts( "\n\n*** ERROR FATAL: ejecutando isr_UTXD1_dummy" );
 c1038a8:	e59f0010 	ldr	r0, [pc, #16]	; c1038c0 <isr_UTXD1_dummy+0x28>
 c1038ac:	eb000473 	bl	c104a80 <uart0_puts>
	SEGS = 0x75;
 c1038b0:	e3a03785 	mov	r3, #34865152	; 0x2140000
 c1038b4:	e3a02075 	mov	r2, #117	; 0x75
 c1038b8:	e5c32000 	strb	r2, [r3]
	while( 1 );
 c1038bc:	eafffffe 	b	c1038bc <isr_UTXD1_dummy+0x24>
 c1038c0:	0c105d60 	.word	0x0c105d60

0c1038c4 <isr_UTXD0_dummy>:
}

void isr_UTXD0_dummy( void )
{
 c1038c4:	e52dc004 	push	{ip}		; (str ip, [sp, #-4]!)
 c1038c8:	e1a0c00d 	mov	ip, sp
 c1038cc:	e92dd80f 	push	{r0, r1, r2, r3, fp, ip, lr, pc}
 c1038d0:	e24cb004 	sub	fp, ip, #4
	uart0_puts( "\n\n*** ERROR FATAL: ejecutando isr_UTXD0_dummy" );
 c1038d4:	e59f0010 	ldr	r0, [pc, #16]	; c1038ec <isr_UTXD0_dummy+0x28>
 c1038d8:	eb000468 	bl	c104a80 <uart0_puts>
	SEGS = 0x75;
 c1038dc:	e3a03785 	mov	r3, #34865152	; 0x2140000
 c1038e0:	e3a02075 	mov	r2, #117	; 0x75
 c1038e4:	e5c32000 	strb	r2, [r3]
	while( 1 );
 c1038e8:	eafffffe 	b	c1038e8 <isr_UTXD0_dummy+0x24>
 c1038ec:	0c105d90 	.word	0x0c105d90

0c1038f0 <isr_SIO_dummy>:
}

void isr_SIO_dummy( void )
{
 c1038f0:	e52dc004 	push	{ip}		; (str ip, [sp, #-4]!)
 c1038f4:	e1a0c00d 	mov	ip, sp
 c1038f8:	e92dd80f 	push	{r0, r1, r2, r3, fp, ip, lr, pc}
 c1038fc:	e24cb004 	sub	fp, ip, #4
	uart0_puts( "\n\n*** ERROR FATAL: ejecutando isr_SIO_dummy" );
 c103900:	e59f0010 	ldr	r0, [pc, #16]	; c103918 <isr_SIO_dummy+0x28>
 c103904:	eb00045d 	bl	c104a80 <uart0_puts>
	SEGS = 0x75;
 c103908:	e3a03785 	mov	r3, #34865152	; 0x2140000
 c10390c:	e3a02075 	mov	r2, #117	; 0x75
 c103910:	e5c32000 	strb	r2, [r3]
	while( 1 );
 c103914:	eafffffe 	b	c103914 <isr_SIO_dummy+0x24>
 c103918:	0c105dc0 	.word	0x0c105dc0

0c10391c <isr_IIC_dummy>:
}

void isr_IIC_dummy( void )
{
 c10391c:	e52dc004 	push	{ip}		; (str ip, [sp, #-4]!)
 c103920:	e1a0c00d 	mov	ip, sp
 c103924:	e92dd80f 	push	{r0, r1, r2, r3, fp, ip, lr, pc}
 c103928:	e24cb004 	sub	fp, ip, #4
	uart0_puts( "\n\n*** ERROR FATAL: ejecutando isr_IIC_dummy" );
 c10392c:	e59f0010 	ldr	r0, [pc, #16]	; c103944 <isr_IIC_dummy+0x28>
 c103930:	eb000452 	bl	c104a80 <uart0_puts>
	SEGS = 0x75;
 c103934:	e3a03785 	mov	r3, #34865152	; 0x2140000
 c103938:	e3a02075 	mov	r2, #117	; 0x75
 c10393c:	e5c32000 	strb	r2, [r3]
	while( 1 );
 c103940:	eafffffe 	b	c103940 <isr_IIC_dummy+0x24>
 c103944:	0c105dec 	.word	0x0c105dec

0c103948 <isr_URXD1_dummy>:
}

void isr_URXD1_dummy( void )
{
 c103948:	e52dc004 	push	{ip}		; (str ip, [sp, #-4]!)
 c10394c:	e1a0c00d 	mov	ip, sp
 c103950:	e92dd80f 	push	{r0, r1, r2, r3, fp, ip, lr, pc}
 c103954:	e24cb004 	sub	fp, ip, #4
	uart0_puts( "\n\n*** ERROR FATAL: ejecutando isr_URXD1_dummy" );
 c103958:	e59f0010 	ldr	r0, [pc, #16]	; c103970 <isr_URXD1_dummy+0x28>
 c10395c:	eb000447 	bl	c104a80 <uart0_puts>
	SEGS = 0x75;
 c103960:	e3a03785 	mov	r3, #34865152	; 0x2140000
 c103964:	e3a02075 	mov	r2, #117	; 0x75
 c103968:	e5c32000 	strb	r2, [r3]
	while( 1 );
 c10396c:	eafffffe 	b	c10396c <isr_URXD1_dummy+0x24>
 c103970:	0c105e18 	.word	0x0c105e18

0c103974 <isr_URXD0_dummy>:
}

void isr_URXD0_dummy( void )
{
 c103974:	e52dc004 	push	{ip}		; (str ip, [sp, #-4]!)
 c103978:	e1a0c00d 	mov	ip, sp
 c10397c:	e92dd80f 	push	{r0, r1, r2, r3, fp, ip, lr, pc}
 c103980:	e24cb004 	sub	fp, ip, #4
	uart0_puts( "\n\n*** ERROR FATAL: ejecutando isr_URXD0_dummy" );
 c103984:	e59f0010 	ldr	r0, [pc, #16]	; c10399c <isr_URXD0_dummy+0x28>
 c103988:	eb00043c 	bl	c104a80 <uart0_puts>
	SEGS = 0x75;
 c10398c:	e3a03785 	mov	r3, #34865152	; 0x2140000
 c103990:	e3a02075 	mov	r2, #117	; 0x75
 c103994:	e5c32000 	strb	r2, [r3]
	while( 1 );
 c103998:	eafffffe 	b	c103998 <isr_URXD0_dummy+0x24>
 c10399c:	0c105e48 	.word	0x0c105e48

0c1039a0 <isr_TIMER5_dummy>:
}

void isr_TIMER5_dummy( void )
{
 c1039a0:	e52dc004 	push	{ip}		; (str ip, [sp, #-4]!)
 c1039a4:	e1a0c00d 	mov	ip, sp
 c1039a8:	e92dd80f 	push	{r0, r1, r2, r3, fp, ip, lr, pc}
 c1039ac:	e24cb004 	sub	fp, ip, #4
	uart0_puts( "\n\n*** ERROR FATAL: ejecutando isr_TIMER5_dummy" );
 c1039b0:	e59f0010 	ldr	r0, [pc, #16]	; c1039c8 <isr_TIMER5_dummy+0x28>
 c1039b4:	eb000431 	bl	c104a80 <uart0_puts>
	SEGS = 0x75;
 c1039b8:	e3a03785 	mov	r3, #34865152	; 0x2140000
 c1039bc:	e3a02075 	mov	r2, #117	; 0x75
 c1039c0:	e5c32000 	strb	r2, [r3]
	while( 1 );
 c1039c4:	eafffffe 	b	c1039c4 <isr_TIMER5_dummy+0x24>
 c1039c8:	0c105e78 	.word	0x0c105e78

0c1039cc <isr_TIMER4_dummy>:
}

void isr_TIMER4_dummy( void )
{
 c1039cc:	e52dc004 	push	{ip}		; (str ip, [sp, #-4]!)
 c1039d0:	e1a0c00d 	mov	ip, sp
 c1039d4:	e92dd80f 	push	{r0, r1, r2, r3, fp, ip, lr, pc}
 c1039d8:	e24cb004 	sub	fp, ip, #4
	uart0_puts( "\n\n*** ERROR FATAL: ejecutando isr_TIMER4_dummy" );
 c1039dc:	e59f0010 	ldr	r0, [pc, #16]	; c1039f4 <isr_TIMER4_dummy+0x28>
 c1039e0:	eb000426 	bl	c104a80 <uart0_puts>
	SEGS = 0x75;
 c1039e4:	e3a03785 	mov	r3, #34865152	; 0x2140000
 c1039e8:	e3a02075 	mov	r2, #117	; 0x75
 c1039ec:	e5c32000 	strb	r2, [r3]
	while( 1 );
 c1039f0:	eafffffe 	b	c1039f0 <isr_TIMER4_dummy+0x24>
 c1039f4:	0c105ea8 	.word	0x0c105ea8

0c1039f8 <isr_TIMER3_dummy>:
}

void isr_TIMER3_dummy( void )
{
 c1039f8:	e52dc004 	push	{ip}		; (str ip, [sp, #-4]!)
 c1039fc:	e1a0c00d 	mov	ip, sp
 c103a00:	e92dd80f 	push	{r0, r1, r2, r3, fp, ip, lr, pc}
 c103a04:	e24cb004 	sub	fp, ip, #4
	uart0_puts( "\n\n*** ERROR FATAL: ejecutando isr_TIMER3_dummy" );
 c103a08:	e59f0010 	ldr	r0, [pc, #16]	; c103a20 <isr_TIMER3_dummy+0x28>
 c103a0c:	eb00041b 	bl	c104a80 <uart0_puts>
	SEGS = 0x75;
 c103a10:	e3a03785 	mov	r3, #34865152	; 0x2140000
 c103a14:	e3a02075 	mov	r2, #117	; 0x75
 c103a18:	e5c32000 	strb	r2, [r3]
	while( 1 );
 c103a1c:	eafffffe 	b	c103a1c <isr_TIMER3_dummy+0x24>
 c103a20:	0c105ed8 	.word	0x0c105ed8

0c103a24 <isr_TIMER2_dummy>:
}

void isr_TIMER2_dummy( void )
{
 c103a24:	e52dc004 	push	{ip}		; (str ip, [sp, #-4]!)
 c103a28:	e1a0c00d 	mov	ip, sp
 c103a2c:	e92dd80f 	push	{r0, r1, r2, r3, fp, ip, lr, pc}
 c103a30:	e24cb004 	sub	fp, ip, #4
	uart0_puts( "\n\n*** ERROR FATAL: ejecutando isr_TIMER2_dummy" );
 c103a34:	e59f0010 	ldr	r0, [pc, #16]	; c103a4c <isr_TIMER2_dummy+0x28>
 c103a38:	eb000410 	bl	c104a80 <uart0_puts>
	SEGS = 0x75;
 c103a3c:	e3a03785 	mov	r3, #34865152	; 0x2140000
 c103a40:	e3a02075 	mov	r2, #117	; 0x75
 c103a44:	e5c32000 	strb	r2, [r3]
	while( 1 );
 c103a48:	eafffffe 	b	c103a48 <isr_TIMER2_dummy+0x24>
 c103a4c:	0c105f08 	.word	0x0c105f08

0c103a50 <isr_TIMER1_dummy>:
}

void isr_TIMER1_dummy( void )
{
 c103a50:	e52dc004 	push	{ip}		; (str ip, [sp, #-4]!)
 c103a54:	e1a0c00d 	mov	ip, sp
 c103a58:	e92dd80f 	push	{r0, r1, r2, r3, fp, ip, lr, pc}
 c103a5c:	e24cb004 	sub	fp, ip, #4
	uart0_puts( "\n\n*** ERROR FATAL: ejecutando isr_TIMER1_dummy" );
 c103a60:	e59f0010 	ldr	r0, [pc, #16]	; c103a78 <isr_TIMER1_dummy+0x28>
 c103a64:	eb000405 	bl	c104a80 <uart0_puts>
	SEGS = 0x75;
 c103a68:	e3a03785 	mov	r3, #34865152	; 0x2140000
 c103a6c:	e3a02075 	mov	r2, #117	; 0x75
 c103a70:	e5c32000 	strb	r2, [r3]
	while( 1 );
 c103a74:	eafffffe 	b	c103a74 <isr_TIMER1_dummy+0x24>
 c103a78:	0c105f38 	.word	0x0c105f38

0c103a7c <isr_TIMER0_dummy>:
}

void isr_TIMER0_dummy( void )
{
 c103a7c:	e52dc004 	push	{ip}		; (str ip, [sp, #-4]!)
 c103a80:	e1a0c00d 	mov	ip, sp
 c103a84:	e92dd80f 	push	{r0, r1, r2, r3, fp, ip, lr, pc}
 c103a88:	e24cb004 	sub	fp, ip, #4
	uart0_puts( "\n\n*** ERROR FATAL: ejecutando isr_TIMER0_dummy" );
 c103a8c:	e59f0010 	ldr	r0, [pc, #16]	; c103aa4 <isr_TIMER0_dummy+0x28>
 c103a90:	eb0003fa 	bl	c104a80 <uart0_puts>
	SEGS = 0x75;
 c103a94:	e3a03785 	mov	r3, #34865152	; 0x2140000
 c103a98:	e3a02075 	mov	r2, #117	; 0x75
 c103a9c:	e5c32000 	strb	r2, [r3]
	while( 1 );
 c103aa0:	eafffffe 	b	c103aa0 <isr_TIMER0_dummy+0x24>
 c103aa4:	0c105f68 	.word	0x0c105f68

0c103aa8 <isr_UERR01_dummy>:
}

void isr_UERR01_dummy( void )
{
 c103aa8:	e52dc004 	push	{ip}		; (str ip, [sp, #-4]!)
 c103aac:	e1a0c00d 	mov	ip, sp
 c103ab0:	e92dd80f 	push	{r0, r1, r2, r3, fp, ip, lr, pc}
 c103ab4:	e24cb004 	sub	fp, ip, #4
	uart0_puts( "\n\n*** ERROR FATAL: ejecutando isr_UERR01_dummy" );
 c103ab8:	e59f0010 	ldr	r0, [pc, #16]	; c103ad0 <isr_UERR01_dummy+0x28>
 c103abc:	eb0003ef 	bl	c104a80 <uart0_puts>
	SEGS = 0x75;
 c103ac0:	e3a03785 	mov	r3, #34865152	; 0x2140000
 c103ac4:	e3a02075 	mov	r2, #117	; 0x75
 c103ac8:	e5c32000 	strb	r2, [r3]
	while( 1 );
 c103acc:	eafffffe 	b	c103acc <isr_UERR01_dummy+0x24>
 c103ad0:	0c105f98 	.word	0x0c105f98

0c103ad4 <isr_WDT_dummy>:
}

void isr_WDT_dummy( void )
{
 c103ad4:	e52dc004 	push	{ip}		; (str ip, [sp, #-4]!)
 c103ad8:	e1a0c00d 	mov	ip, sp
 c103adc:	e92dd80f 	push	{r0, r1, r2, r3, fp, ip, lr, pc}
 c103ae0:	e24cb004 	sub	fp, ip, #4
	uart0_puts( "\n\n*** ERROR FATAL: ejecutando isr_WDT_dummy" );
 c103ae4:	e59f0010 	ldr	r0, [pc, #16]	; c103afc <isr_WDT_dummy+0x28>
 c103ae8:	eb0003e4 	bl	c104a80 <uart0_puts>
	SEGS = 0x75;
 c103aec:	e3a03785 	mov	r3, #34865152	; 0x2140000
 c103af0:	e3a02075 	mov	r2, #117	; 0x75
 c103af4:	e5c32000 	strb	r2, [r3]
	while( 1 );
 c103af8:	eafffffe 	b	c103af8 <isr_WDT_dummy+0x24>
 c103afc:	0c105fc8 	.word	0x0c105fc8

0c103b00 <isr_BDMA1_dummy>:
}

void isr_BDMA1_dummy( void )
{
 c103b00:	e52dc004 	push	{ip}		; (str ip, [sp, #-4]!)
 c103b04:	e1a0c00d 	mov	ip, sp
 c103b08:	e92dd80f 	push	{r0, r1, r2, r3, fp, ip, lr, pc}
 c103b0c:	e24cb004 	sub	fp, ip, #4
	uart0_puts( "\n\n*** ERROR FATAL: ejecutando isr_BDMA1_dummy" );
 c103b10:	e59f0010 	ldr	r0, [pc, #16]	; c103b28 <isr_BDMA1_dummy+0x28>
 c103b14:	eb0003d9 	bl	c104a80 <uart0_puts>
	SEGS = 0x75;
 c103b18:	e3a03785 	mov	r3, #34865152	; 0x2140000
 c103b1c:	e3a02075 	mov	r2, #117	; 0x75
 c103b20:	e5c32000 	strb	r2, [r3]
	while( 1 );
 c103b24:	eafffffe 	b	c103b24 <isr_BDMA1_dummy+0x24>
 c103b28:	0c105ff4 	.word	0x0c105ff4

0c103b2c <isr_BDMA0_dummy>:
}

void isr_BDMA0_dummy( void )
{
 c103b2c:	e52dc004 	push	{ip}		; (str ip, [sp, #-4]!)
 c103b30:	e1a0c00d 	mov	ip, sp
 c103b34:	e92dd80f 	push	{r0, r1, r2, r3, fp, ip, lr, pc}
 c103b38:	e24cb004 	sub	fp, ip, #4
	uart0_puts( "\n\n*** ERROR FATAL: ejecutando isr_BDMA0_dummy" );
 c103b3c:	e59f0010 	ldr	r0, [pc, #16]	; c103b54 <isr_BDMA0_dummy+0x28>
 c103b40:	eb0003ce 	bl	c104a80 <uart0_puts>
	SEGS = 0x75;
 c103b44:	e3a03785 	mov	r3, #34865152	; 0x2140000
 c103b48:	e3a02075 	mov	r2, #117	; 0x75
 c103b4c:	e5c32000 	strb	r2, [r3]
	while( 1 );
 c103b50:	eafffffe 	b	c103b50 <isr_BDMA0_dummy+0x24>
 c103b54:	0c106024 	.word	0x0c106024

0c103b58 <isr_ZDMA1_dummy>:
}

void isr_ZDMA1_dummy( void )
{
 c103b58:	e52dc004 	push	{ip}		; (str ip, [sp, #-4]!)
 c103b5c:	e1a0c00d 	mov	ip, sp
 c103b60:	e92dd80f 	push	{r0, r1, r2, r3, fp, ip, lr, pc}
 c103b64:	e24cb004 	sub	fp, ip, #4
	uart0_puts( "\n\n*** ERROR FATAL: ejecutando isr_ZDMA1_dummy" );
 c103b68:	e59f0010 	ldr	r0, [pc, #16]	; c103b80 <isr_ZDMA1_dummy+0x28>
 c103b6c:	eb0003c3 	bl	c104a80 <uart0_puts>
	SEGS = 0x75;
 c103b70:	e3a03785 	mov	r3, #34865152	; 0x2140000
 c103b74:	e3a02075 	mov	r2, #117	; 0x75
 c103b78:	e5c32000 	strb	r2, [r3]
	while( 1 );
 c103b7c:	eafffffe 	b	c103b7c <isr_ZDMA1_dummy+0x24>
 c103b80:	0c106054 	.word	0x0c106054

0c103b84 <isr_ZDMA0_dummy>:
}

void isr_ZDMA0_dummy( void )
{
 c103b84:	e52dc004 	push	{ip}		; (str ip, [sp, #-4]!)
 c103b88:	e1a0c00d 	mov	ip, sp
 c103b8c:	e92dd80f 	push	{r0, r1, r2, r3, fp, ip, lr, pc}
 c103b90:	e24cb004 	sub	fp, ip, #4
	uart0_puts( "\n\n*** ERROR FATAL: ejecutando isr_ZDMA0_dummy" );
 c103b94:	e59f0010 	ldr	r0, [pc, #16]	; c103bac <isr_ZDMA0_dummy+0x28>
 c103b98:	eb0003b8 	bl	c104a80 <uart0_puts>
	SEGS = 0x75;
 c103b9c:	e3a03785 	mov	r3, #34865152	; 0x2140000
 c103ba0:	e3a02075 	mov	r2, #117	; 0x75
 c103ba4:	e5c32000 	strb	r2, [r3]
	while( 1 );
 c103ba8:	eafffffe 	b	c103ba8 <isr_ZDMA0_dummy+0x24>
 c103bac:	0c106084 	.word	0x0c106084

0c103bb0 <isr_TICK_dummy>:
}

void isr_TICK_dummy( void )
{
 c103bb0:	e52dc004 	push	{ip}		; (str ip, [sp, #-4]!)
 c103bb4:	e1a0c00d 	mov	ip, sp
 c103bb8:	e92dd80f 	push	{r0, r1, r2, r3, fp, ip, lr, pc}
 c103bbc:	e24cb004 	sub	fp, ip, #4
	uart0_puts( "\n\n*** ERROR FATAL: ejecutando isr_TICK_dummy" );
 c103bc0:	e59f0010 	ldr	r0, [pc, #16]	; c103bd8 <isr_TICK_dummy+0x28>
 c103bc4:	eb0003ad 	bl	c104a80 <uart0_puts>
	SEGS = 0x75;
 c103bc8:	e3a03785 	mov	r3, #34865152	; 0x2140000
 c103bcc:	e3a02075 	mov	r2, #117	; 0x75
 c103bd0:	e5c32000 	strb	r2, [r3]
	while( 1 );
 c103bd4:	eafffffe 	b	c103bd4 <isr_TICK_dummy+0x24>
 c103bd8:	0c1060b4 	.word	0x0c1060b4

0c103bdc <isr_PB_dummy>:
}

void isr_PB_dummy( void )
{
 c103bdc:	e52dc004 	push	{ip}		; (str ip, [sp, #-4]!)
 c103be0:	e1a0c00d 	mov	ip, sp
 c103be4:	e92dd80f 	push	{r0, r1, r2, r3, fp, ip, lr, pc}
 c103be8:	e24cb004 	sub	fp, ip, #4
	uart0_puts( "\n\n*** ERROR FATAL: ejecutando isr_PB_dummy" );
 c103bec:	e59f0010 	ldr	r0, [pc, #16]	; c103c04 <isr_PB_dummy+0x28>
 c103bf0:	eb0003a2 	bl	c104a80 <uart0_puts>
	SEGS = 0x75;
 c103bf4:	e3a03785 	mov	r3, #34865152	; 0x2140000
 c103bf8:	e3a02075 	mov	r2, #117	; 0x75
 c103bfc:	e5c32000 	strb	r2, [r3]
	while( 1 );
 c103c00:	eafffffe 	b	c103c00 <isr_PB_dummy+0x24>
 c103c04:	0c1060e4 	.word	0x0c1060e4

0c103c08 <isr_ETHERNET_dummy>:
}

void isr_ETHERNET_dummy( void )
{
 c103c08:	e52dc004 	push	{ip}		; (str ip, [sp, #-4]!)
 c103c0c:	e1a0c00d 	mov	ip, sp
 c103c10:	e92dd80f 	push	{r0, r1, r2, r3, fp, ip, lr, pc}
 c103c14:	e24cb004 	sub	fp, ip, #4
	uart0_puts( "\n\n*** ERROR FATAL: ejecutando isr_ETHERNET_dummy" );
 c103c18:	e59f0010 	ldr	r0, [pc, #16]	; c103c30 <isr_ETHERNET_dummy+0x28>
 c103c1c:	eb000397 	bl	c104a80 <uart0_puts>
	SEGS = 0x75;
 c103c20:	e3a03785 	mov	r3, #34865152	; 0x2140000
 c103c24:	e3a02075 	mov	r2, #117	; 0x75
 c103c28:	e5c32000 	strb	r2, [r3]
	while( 1 );
 c103c2c:	eafffffe 	b	c103c2c <isr_ETHERNET_dummy+0x24>
 c103c30:	0c106110 	.word	0x0c106110

0c103c34 <isr_TS_dummy>:
}

void isr_TS_dummy( void )
{
 c103c34:	e52dc004 	push	{ip}		; (str ip, [sp, #-4]!)
 c103c38:	e1a0c00d 	mov	ip, sp
 c103c3c:	e92dd80f 	push	{r0, r1, r2, r3, fp, ip, lr, pc}
 c103c40:	e24cb004 	sub	fp, ip, #4
	uart0_puts( "\n\n*** ERROR FATAL: ejecutando isr_TS_dummy" );
 c103c44:	e59f0010 	ldr	r0, [pc, #16]	; c103c5c <isr_TS_dummy+0x28>
 c103c48:	eb00038c 	bl	c104a80 <uart0_puts>
	SEGS = 0x75;
 c103c4c:	e3a03785 	mov	r3, #34865152	; 0x2140000
 c103c50:	e3a02075 	mov	r2, #117	; 0x75
 c103c54:	e5c32000 	strb	r2, [r3]
	while( 1 );
 c103c58:	eafffffe 	b	c103c58 <isr_TS_dummy+0x24>
 c103c5c:	0c106144 	.word	0x0c106144

0c103c60 <isr_KEYPAD_dummy>:
}

void isr_KEYPAD_dummy( void )
{
 c103c60:	e52dc004 	push	{ip}		; (str ip, [sp, #-4]!)
 c103c64:	e1a0c00d 	mov	ip, sp
 c103c68:	e92dd80f 	push	{r0, r1, r2, r3, fp, ip, lr, pc}
 c103c6c:	e24cb004 	sub	fp, ip, #4
	uart0_puts( "\n\n*** ERROR FATAL: ejecutando isr_KEYPAD_dummy" );
 c103c70:	e59f0010 	ldr	r0, [pc, #16]	; c103c88 <isr_KEYPAD_dummy+0x28>
 c103c74:	eb000381 	bl	c104a80 <uart0_puts>
	SEGS = 0x75;
 c103c78:	e3a03785 	mov	r3, #34865152	; 0x2140000
 c103c7c:	e3a02075 	mov	r2, #117	; 0x75
 c103c80:	e5c32000 	strb	r2, [r3]
	while( 1 );
 c103c84:	eafffffe 	b	c103c84 <isr_KEYPAD_dummy+0x24>
 c103c88:	0c106170 	.word	0x0c106170

0c103c8c <isr_USB_dummy>:
}

void isr_USB_dummy( void )
{
 c103c8c:	e52dc004 	push	{ip}		; (str ip, [sp, #-4]!)
 c103c90:	e1a0c00d 	mov	ip, sp
 c103c94:	e92dd80f 	push	{r0, r1, r2, r3, fp, ip, lr, pc}
 c103c98:	e24cb004 	sub	fp, ip, #4
	uart0_puts( "\n\n*** ERROR FATAL: ejecutando isr_USB_dummy" );
 c103c9c:	e59f0010 	ldr	r0, [pc, #16]	; c103cb4 <isr_USB_dummy+0x28>
 c103ca0:	eb000376 	bl	c104a80 <uart0_puts>
	SEGS = 0x75;
 c103ca4:	e3a03785 	mov	r3, #34865152	; 0x2140000
 c103ca8:	e3a02075 	mov	r2, #117	; 0x75
 c103cac:	e5c32000 	strb	r2, [r3]
	while( 1 );
 c103cb0:	eafffffe 	b	c103cb0 <isr_USB_dummy+0x24>
 c103cb4:	0c1061a0 	.word	0x0c1061a0

0c103cb8 <show_sys_info>:
}

static inline void show_sys_info( void )
{
 c103cb8:	e1a0c00d 	mov	ip, sp
 c103cbc:	e92dd800 	push	{fp, ip, lr, pc}
 c103cc0:	e24cb004 	sub	fp, ip, #4
	uart0_puts( "\n\n INFORMACION DEL SISTEMA" );
 c103cc4:	e59f000c 	ldr	r0, [pc, #12]	; c103cd8 <show_sys_info+0x20>
 c103cc8:	eb00036c 	bl	c104a80 <uart0_puts>
}
 c103ccc:	e24bd00c 	sub	sp, fp, #12
 c103cd0:	e89d6800 	ldm	sp, {fp, sp, lr}
 c103cd4:	e12fff1e 	bx	lr
 c103cd8:	0c1061cc 	.word	0x0c1061cc

0c103cdc <sleep>:

inline void sleep( void ){
 c103cdc:	e1a0c00d 	mov	ip, sp
 c103ce0:	e92dd800 	push	{fp, ip, lr, pc}
 c103ce4:	e24cb004 	sub	fp, ip, #4
	CLKCON |= (1 << 2);    // Pone a la CPU en estado IDLE
 c103ce8:	e59f3018 	ldr	r3, [pc, #24]	; c103d08 <sleep+0x2c>
 c103cec:	e59f2014 	ldr	r2, [pc, #20]	; c103d08 <sleep+0x2c>
 c103cf0:	e5922000 	ldr	r2, [r2]
 c103cf4:	e3822004 	orr	r2, r2, #4
 c103cf8:	e5832000 	str	r2, [r3]
}
 c103cfc:	e24bd00c 	sub	sp, fp, #12
 c103d00:	e89d6800 	ldm	sp, {fp, sp, lr}
 c103d04:	e12fff1e 	bx	lr
 c103d08:	01d80004 	.word	0x01d80004

0c103d0c <sys_recovery>:

static void sys_recovery( void ) // NO TOCAR
{
 c103d0c:	e1a0c00d 	mov	ip, sp
 c103d10:	e92dd800 	push	{fp, ip, lr, pc}
 c103d14:	e24cb004 	sub	fp, ip, #4
 c103d18:	e24dd018 	sub	sp, sp, #24
	uint8 mode;
	uint32 sp, fp;
	uint32 *addrSrc, *addrDst;
	uint32 diffStacks;

	asm volatile ( "str sp, %0" : "=m" (sp) : : );    // lee el puntero a la cima de la pila de excepción (SP)
 c103d1c:	e50bd01c 	str	sp, [fp, #-28]	; 0xffffffe4
	asm volatile ( "str fp, %0" : "=m" (fp) : : );    // lee el puntero al marco de activación (FP) de sys_recovery() en la pila de excepción
 c103d20:	e50bb020 	str	fp, [fp, #-32]	; 0xffffffe0

	GET_OPMODE( &mode );    // lee el modo de ejecución del procesador
 c103d24:	e10f0000 	mrs	r0, CPSR
 c103d28:	e200001f 	and	r0, r0, #31
 c103d2c:	e54b0015 	strb	r0, [fp, #-21]	; 0xffffffeb
	switch( mode )
 c103d30:	e55b3015 	ldrb	r3, [fp, #-21]	; 0xffffffeb
 c103d34:	e2433011 	sub	r3, r3, #17
 c103d38:	e353000a 	cmp	r3, #10
 c103d3c:	979ff103 	ldrls	pc, [pc, r3, lsl #2]
 c103d40:	ea00001e 	b	c103dc0 <sys_recovery+0xb4>
 c103d44:	0c103d84 	.word	0x0c103d84
 c103d48:	0c103d70 	.word	0x0c103d70
 c103d4c:	0c103dc0 	.word	0x0c103dc0
 c103d50:	0c103dc0 	.word	0x0c103dc0
 c103d54:	0c103dc0 	.word	0x0c103dc0
 c103d58:	0c103dc0 	.word	0x0c103dc0
 c103d5c:	0c103d98 	.word	0x0c103d98
 c103d60:	0c103dc0 	.word	0x0c103dc0
 c103d64:	0c103dc0 	.word	0x0c103dc0
 c103d68:	0c103dc0 	.word	0x0c103dc0
 c103d6c:	0c103dac 	.word	0x0c103dac
	{
	case IRQMODE:
		diffStacks = IRQSTACK - SVCSTACK;     // calcula la distancia entre la bases de la pila IRQ y la SVC
 c103d70:	e3a03c03 	mov	r3, #768	; 0x300
 c103d74:	e50b3014 	str	r3, [fp, #-20]	; 0xffffffec
		addrSrc = (uint32 *)IRQSTACK;         // base de la pila IRQ
 c103d78:	e59f3198 	ldr	r3, [pc, #408]	; c103f18 <sys_recovery+0x20c>
 c103d7c:	e50b3024 	str	r3, [fp, #-36]	; 0xffffffdc
		break;
 c103d80:	ea00000f 	b	c103dc4 <sys_recovery+0xb8>
	case FIQMODE:
		diffStacks = FIQSTACK - SVCSTACK;     // calcula la distancia entre la bases de la pila FIQ y la SVC
 c103d84:	e3a03b01 	mov	r3, #1024	; 0x400
 c103d88:	e50b3014 	str	r3, [fp, #-20]	; 0xffffffec
		addrSrc = (uint32 *)FIQSTACK;         // base de la pila FIQ
 c103d8c:	e59f3188 	ldr	r3, [pc, #392]	; c103f1c <sys_recovery+0x210>
 c103d90:	e50b3024 	str	r3, [fp, #-36]	; 0xffffffdc
		break;
 c103d94:	ea00000a 	b	c103dc4 <sys_recovery+0xb8>
	case ABTMODE:
		diffStacks = ABTSTACK - SVCSTACK;     // calcula la distancia entre la bases de la pila ABT y la SVC
 c103d98:	e3a03c02 	mov	r3, #512	; 0x200
 c103d9c:	e50b3014 	str	r3, [fp, #-20]	; 0xffffffec
		addrSrc = (uint32 *)ABTSTACK;         // base de la pila ABT
 c103da0:	e59f3178 	ldr	r3, [pc, #376]	; c103f20 <sys_recovery+0x214>
 c103da4:	e50b3024 	str	r3, [fp, #-36]	; 0xffffffdc
		break;
 c103da8:	ea000005 	b	c103dc4 <sys_recovery+0xb8>
	case UNDMODE:
		diffStacks = UNDSTACK - SVCSTACK;     // calcula la distancia entre la bases de la pila UND y la SVC
 c103dac:	e3a03c01 	mov	r3, #256	; 0x100
 c103db0:	e50b3014 	str	r3, [fp, #-20]	; 0xffffffec
		addrSrc = (uint32 *)UNDSTACK;         // base de la pila UND
 c103db4:	e59f3168 	ldr	r3, [pc, #360]	; c103f24 <sys_recovery+0x218>
 c103db8:	e50b3024 	str	r3, [fp, #-36]	; 0xffffffdc
		break;
 c103dbc:	ea000000 	b	c103dc4 <sys_recovery+0xb8>
	case USRMODE:
		// Habría que hacer algo análogo a lo anterior y además para volver a modo SVC dado que no es válido SET_OPMODE( SVCMODE ), es necesario esto:
		// pISR_SWI = (uint32) isr_SWI;
		// SWI( 0 );
	default:
		while( 1 );                           // aquí no debería llegarse
 c103dc0:	eafffffe 	b	c103dc0 <sys_recovery+0xb4>
		break;
	}

	asm volatile ( "ldr sp, %0" : "=m" (addrSrc) : : );    // restaura el SP de excepción a su base para desechar su contenido y evitar su desbordamiento
 c103dc4:	e51bd024 	ldr	sp, [fp, #-36]	; 0xffffffdc

	for( addrDst = (uint32 *)SVCSTACK; addrSrc > (uint32 *)sp; )    // copia el contenido completo de la pila excepción en la pila SVC
 c103dc8:	e59f3158 	ldr	r3, [pc, #344]	; c103f28 <sys_recovery+0x21c>
 c103dcc:	e50b3010 	str	r3, [fp, #-16]
 c103dd0:	ea000009 	b	c103dfc <sys_recovery+0xf0>
		*(--addrDst) = *(--addrSrc);
 c103dd4:	e51b3010 	ldr	r3, [fp, #-16]
 c103dd8:	e2433004 	sub	r3, r3, #4
 c103ddc:	e50b3010 	str	r3, [fp, #-16]
 c103de0:	e51b3024 	ldr	r3, [fp, #-36]	; 0xffffffdc
 c103de4:	e2433004 	sub	r3, r3, #4
 c103de8:	e50b3024 	str	r3, [fp, #-36]	; 0xffffffdc
 c103dec:	e51b3024 	ldr	r3, [fp, #-36]	; 0xffffffdc
 c103df0:	e5932000 	ldr	r2, [r3]
 c103df4:	e51b3010 	ldr	r3, [fp, #-16]
 c103df8:	e5832000 	str	r2, [r3]
		break;
	}

	asm volatile ( "ldr sp, %0" : "=m" (addrSrc) : : );    // restaura el SP de excepción a su base para desechar su contenido y evitar su desbordamiento

	for( addrDst = (uint32 *)SVCSTACK; addrSrc > (uint32 *)sp; )    // copia el contenido completo de la pila excepción en la pila SVC
 c103dfc:	e51b301c 	ldr	r3, [fp, #-28]	; 0xffffffe4
 c103e00:	e1a02003 	mov	r2, r3
 c103e04:	e51b3024 	ldr	r3, [fp, #-36]	; 0xffffffdc
 c103e08:	e1520003 	cmp	r2, r3
 c103e0c:	3afffff0 	bcc	c103dd4 <sys_recovery+0xc8>
		*(--addrDst) = *(--addrSrc);

	addrDst = (uint32 *)(fp-diffStacks);   // carga el puntero al marco de activación de sys_recovery() en la pila SVC
 c103e10:	e51b2020 	ldr	r2, [fp, #-32]	; 0xffffffe0
 c103e14:	e51b3014 	ldr	r3, [fp, #-20]	; 0xffffffec
 c103e18:	e0633002 	rsb	r3, r3, r2
 c103e1c:	e50b3010 	str	r3, [fp, #-16]
	addrDst--;                             // salta el PC apilado
 c103e20:	e51b3010 	ldr	r3, [fp, #-16]
 c103e24:	e2433004 	sub	r3, r3, #4
 c103e28:	e50b3010 	str	r3, [fp, #-16]
	addrDst--;                             // salta el LR apilado
 c103e2c:	e51b3010 	ldr	r3, [fp, #-16]
 c103e30:	e2433004 	sub	r3, r3, #4
 c103e34:	e50b3010 	str	r3, [fp, #-16]
	*addrDst -= diffStacks;                // actualiza SP apilado para que apunte a la pila SVC
 c103e38:	e51b3010 	ldr	r3, [fp, #-16]
 c103e3c:	e5932000 	ldr	r2, [r3]
 c103e40:	e51b3014 	ldr	r3, [fp, #-20]	; 0xffffffec
 c103e44:	e0632002 	rsb	r2, r3, r2
 c103e48:	e51b3010 	ldr	r3, [fp, #-16]
 c103e4c:	e5832000 	str	r2, [r3]
	addrDst--;                             // salta el SP apilado
 c103e50:	e51b3010 	ldr	r3, [fp, #-16]
 c103e54:	e2433004 	sub	r3, r3, #4
 c103e58:	e50b3010 	str	r3, [fp, #-16]
	*addrDst -= diffStacks;                // actualiza el FP apilado para que apunte a la pila SVC
 c103e5c:	e51b3010 	ldr	r3, [fp, #-16]
 c103e60:	e5932000 	ldr	r2, [r3]
 c103e64:	e51b3014 	ldr	r3, [fp, #-20]	; 0xffffffec
 c103e68:	e0632002 	rsb	r2, r3, r2
 c103e6c:	e51b3010 	ldr	r3, [fp, #-16]
 c103e70:	e5832000 	str	r2, [r3]

	addrDst = (uint32 *)(*addrDst);        // carga el puntero al marco de activación de sys_init()
 c103e74:	e51b3010 	ldr	r3, [fp, #-16]
 c103e78:	e5933000 	ldr	r3, [r3]
 c103e7c:	e50b3010 	str	r3, [fp, #-16]
	addrDst--;                             // salta el PC apilado
 c103e80:	e51b3010 	ldr	r3, [fp, #-16]
 c103e84:	e2433004 	sub	r3, r3, #4
 c103e88:	e50b3010 	str	r3, [fp, #-16]
	addrDst--;                             // salta el LR apilado
 c103e8c:	e51b3010 	ldr	r3, [fp, #-16]
 c103e90:	e2433004 	sub	r3, r3, #4
 c103e94:	e50b3010 	str	r3, [fp, #-16]
	*addrDst -= diffStacks;                // actualiza SP apilado para que apunte a la pila SVC
 c103e98:	e51b3010 	ldr	r3, [fp, #-16]
 c103e9c:	e5932000 	ldr	r2, [r3]
 c103ea0:	e51b3014 	ldr	r3, [fp, #-20]	; 0xffffffec
 c103ea4:	e0632002 	rsb	r2, r3, r2
 c103ea8:	e51b3010 	ldr	r3, [fp, #-16]
 c103eac:	e5832000 	str	r2, [r3]
	addrDst--;                             // salta el SP apilado
 c103eb0:	e51b3010 	ldr	r3, [fp, #-16]
 c103eb4:	e2433004 	sub	r3, r3, #4
 c103eb8:	e50b3010 	str	r3, [fp, #-16]
	*addrDst -= diffStacks;                // actualiza el FP apilado para que apunte a la pila SVC
 c103ebc:	e51b3010 	ldr	r3, [fp, #-16]
 c103ec0:	e5932000 	ldr	r2, [r3]
 c103ec4:	e51b3014 	ldr	r3, [fp, #-20]	; 0xffffffec
 c103ec8:	e0632002 	rsb	r2, r3, r2
 c103ecc:	e51b3010 	ldr	r3, [fp, #-16]
 c103ed0:	e5832000 	str	r2, [r3]

	SET_OPMODE( SVCMODE );                           // cambia a modo SVC
 c103ed4:	e10f0000 	mrs	r0, CPSR
 c103ed8:	e3c0001f 	bic	r0, r0, #31
 c103edc:	e3800013 	orr	r0, r0, #19
 c103ee0:	e121f000 	msr	CPSR_c, r0

	sp -= diffStacks;
 c103ee4:	e51b201c 	ldr	r2, [fp, #-28]	; 0xffffffe4
 c103ee8:	e51b3014 	ldr	r3, [fp, #-20]	; 0xffffffec
 c103eec:	e0633002 	rsb	r3, r3, r2
 c103ef0:	e50b301c 	str	r3, [fp, #-28]	; 0xffffffe4
	asm volatile ( "ldr sp, %0" : : "m" (sp) : );    // actualiza SP_svc para que apunte a la cima de la pila SVC
 c103ef4:	e51bd01c 	ldr	sp, [fp, #-28]	; 0xffffffe4

	fp -= diffStacks;
 c103ef8:	e51b2020 	ldr	r2, [fp, #-32]	; 0xffffffe0
 c103efc:	e51b3014 	ldr	r3, [fp, #-20]	; 0xffffffec
 c103f00:	e0633002 	rsb	r3, r3, r2
 c103f04:	e50b3020 	str	r3, [fp, #-32]	; 0xffffffe0
	asm volatile ( "ldr fp, %0" : : "m" (fp) : );    // actualiza FP para que apunte al marco de la pila SVC, debe ser siempre la última sentencia
 c103f08:	e51bb020 	ldr	fp, [fp, #-32]	; 0xffffffe0
}
 c103f0c:	e24bd00c 	sub	sp, fp, #12
 c103f10:	e89d6800 	ldm	sp, {fp, sp, lr}
 c103f14:	e12fff1e 	bx	lr
 c103f18:	0c7ff400 	.word	0x0c7ff400
 c103f1c:	0c7ff500 	.word	0x0c7ff500
 c103f20:	0c7ff300 	.word	0x0c7ff300
 c103f24:	0c7ff200 	.word	0x0c7ff200
 c103f28:	0c7ff100 	.word	0x0c7ff100

0c103f2c <timers_init>:
static uint32 loop_s = 0;

static void sw_delay_init( void );

void timers_init( void )
{
 c103f2c:	e1a0c00d 	mov	ip, sp
 c103f30:	e92dd800 	push	{fp, ip, lr, pc}
 c103f34:	e24cb004 	sub	fp, ip, #4
    TCFG0 = 0x00000000;
 c103f38:	e59f30c4 	ldr	r3, [pc, #196]	; c104004 <timers_init+0xd8>
 c103f3c:	e3a02000 	mov	r2, #0
 c103f40:	e5832000 	str	r2, [r3]
    TCFG1 = 0x00000000;
 c103f44:	e59f30bc 	ldr	r3, [pc, #188]	; c104008 <timers_init+0xdc>
 c103f48:	e3a02000 	mov	r2, #0
 c103f4c:	e5832000 	str	r2, [r3]

    TCNTB0 = 0x0000;
 c103f50:	e59f30b4 	ldr	r3, [pc, #180]	; c10400c <timers_init+0xe0>
 c103f54:	e3a02000 	mov	r2, #0
 c103f58:	e5832000 	str	r2, [r3]
    TCMPB0 = 0x0000;
 c103f5c:	e59f30ac 	ldr	r3, [pc, #172]	; c104010 <timers_init+0xe4>
 c103f60:	e3a02000 	mov	r2, #0
 c103f64:	e5832000 	str	r2, [r3]
    TCNTB1 = 0x0000;
 c103f68:	e59f30a4 	ldr	r3, [pc, #164]	; c104014 <timers_init+0xe8>
 c103f6c:	e3a02000 	mov	r2, #0
 c103f70:	e5832000 	str	r2, [r3]
    TCMPB1 = 0x0000;
 c103f74:	e59f309c 	ldr	r3, [pc, #156]	; c104018 <timers_init+0xec>
 c103f78:	e3a02000 	mov	r2, #0
 c103f7c:	e5832000 	str	r2, [r3]
    TCNTB2 = 0x0000;
 c103f80:	e59f3094 	ldr	r3, [pc, #148]	; c10401c <timers_init+0xf0>
 c103f84:	e3a02000 	mov	r2, #0
 c103f88:	e5832000 	str	r2, [r3]
    TCMPB2 = 0x0000;
 c103f8c:	e59f308c 	ldr	r3, [pc, #140]	; c104020 <timers_init+0xf4>
 c103f90:	e3a02000 	mov	r2, #0
 c103f94:	e5832000 	str	r2, [r3]
    TCNTB3 = 0x0000;
 c103f98:	e59f3084 	ldr	r3, [pc, #132]	; c104024 <timers_init+0xf8>
 c103f9c:	e3a02000 	mov	r2, #0
 c103fa0:	e5832000 	str	r2, [r3]
    TCMPB3 = 0x0000;
 c103fa4:	e59f307c 	ldr	r3, [pc, #124]	; c104028 <timers_init+0xfc>
 c103fa8:	e3a02000 	mov	r2, #0
 c103fac:	e5832000 	str	r2, [r3]
    TCNTB4 = 0x0000;
 c103fb0:	e59f3074 	ldr	r3, [pc, #116]	; c10402c <timers_init+0x100>
 c103fb4:	e3a02000 	mov	r2, #0
 c103fb8:	e5832000 	str	r2, [r3]
    TCMPB4 = 0x0000;
 c103fbc:	e59f306c 	ldr	r3, [pc, #108]	; c104030 <timers_init+0x104>
 c103fc0:	e3a02000 	mov	r2, #0
 c103fc4:	e5832000 	str	r2, [r3]
    TCNTB5 = 0x0000;
 c103fc8:	e59f3064 	ldr	r3, [pc, #100]	; c104034 <timers_init+0x108>
 c103fcc:	e3a02000 	mov	r2, #0
 c103fd0:	e5832000 	str	r2, [r3]

    TCON = ((1 << 1) | (1 << 9)| (1 << 13) | (1 << 17) | (1 << 21) | (1 << 25));
 c103fd4:	e59f305c 	ldr	r3, [pc, #92]	; c104038 <timers_init+0x10c>
 c103fd8:	e59f205c 	ldr	r2, [pc, #92]	; c10403c <timers_init+0x110>
 c103fdc:	e5832000 	str	r2, [r3]
    TCON = (TCON & ~(0xFFFFFFF));
 c103fe0:	e59f3050 	ldr	r3, [pc, #80]	; c104038 <timers_init+0x10c>
 c103fe4:	e59f204c 	ldr	r2, [pc, #76]	; c104038 <timers_init+0x10c>
 c103fe8:	e5922000 	ldr	r2, [r2]
 c103fec:	e202220f 	and	r2, r2, #-268435456	; 0xf0000000
 c103ff0:	e5832000 	str	r2, [r3]

    sw_delay_init();
 c103ff4:	eb000070 	bl	c1041bc <sw_delay_init>
}
 c103ff8:	e24bd00c 	sub	sp, fp, #12
 c103ffc:	e89d6800 	ldm	sp, {fp, sp, lr}
 c104000:	e12fff1e 	bx	lr
 c104004:	01d50000 	.word	0x01d50000
 c104008:	01d50004 	.word	0x01d50004
 c10400c:	01d5000c 	.word	0x01d5000c
 c104010:	01d50010 	.word	0x01d50010
 c104014:	01d50018 	.word	0x01d50018
 c104018:	01d5001c 	.word	0x01d5001c
 c10401c:	01d50024 	.word	0x01d50024
 c104020:	01d50028 	.word	0x01d50028
 c104024:	01d50030 	.word	0x01d50030
 c104028:	01d50034 	.word	0x01d50034
 c10402c:	01d5003c 	.word	0x01d5003c
 c104030:	01d50040 	.word	0x01d50040
 c104034:	01d50048 	.word	0x01d50048
 c104038:	01d50008 	.word	0x01d50008
 c10403c:	02222202 	.word	0x02222202

0c104040 <wait_for_1ms>:

void wait_for_1ms(void){
 c104040:	e1a0c00d 	mov	ip, sp
 c104044:	e92dd800 	push	{fp, ip, lr, pc}
 c104048:	e24cb004 	sub	fp, ip, #4
	TCFG0 = (TCFG0 & ~(0XFF << 8)) | (0 << 8);
 c10404c:	e59f3090 	ldr	r3, [pc, #144]	; c1040e4 <wait_for_1ms+0xa4>
 c104050:	e59f208c 	ldr	r2, [pc, #140]	; c1040e4 <wait_for_1ms+0xa4>
 c104054:	e5922000 	ldr	r2, [r2]
 c104058:	e3c22cff 	bic	r2, r2, #65280	; 0xff00
 c10405c:	e5832000 	str	r2, [r3]
	TCFG1 = (TCFG1 & ~(0xf << 12)) | (0 << 12);
 c104060:	e59f3080 	ldr	r3, [pc, #128]	; c1040e8 <wait_for_1ms+0xa8>
 c104064:	e59f207c 	ldr	r2, [pc, #124]	; c1040e8 <wait_for_1ms+0xa8>
 c104068:	e5922000 	ldr	r2, [r2]
 c10406c:	e3c22a0f 	bic	r2, r2, #61440	; 0xf000
 c104070:	e5832000 	str	r2, [r3]
	TCNTB3 = 32000;
 c104074:	e59f3070 	ldr	r3, [pc, #112]	; c1040ec <wait_for_1ms+0xac>
 c104078:	e3a02c7d 	mov	r2, #32000	; 0x7d00
 c10407c:	e5832000 	str	r2, [r3]
	TCON = (TCON & ~(0xf << 16)) | (1 << 17);
 c104080:	e59f3068 	ldr	r3, [pc, #104]	; c1040f0 <wait_for_1ms+0xb0>
 c104084:	e59f2064 	ldr	r2, [pc, #100]	; c1040f0 <wait_for_1ms+0xb0>
 c104088:	e5922000 	ldr	r2, [r2]
 c10408c:	e3c2280f 	bic	r2, r2, #983040	; 0xf0000
 c104090:	e3822802 	orr	r2, r2, #131072	; 0x20000
 c104094:	e5832000 	str	r2, [r3]
	TCON = (TCON & ~(0xf << 16)) | (1 << 16);
 c104098:	e59f3050 	ldr	r3, [pc, #80]	; c1040f0 <wait_for_1ms+0xb0>
 c10409c:	e59f204c 	ldr	r2, [pc, #76]	; c1040f0 <wait_for_1ms+0xb0>
 c1040a0:	e5922000 	ldr	r2, [r2]
 c1040a4:	e3c2280f 	bic	r2, r2, #983040	; 0xf0000
 c1040a8:	e3822801 	orr	r2, r2, #65536	; 0x10000
 c1040ac:	e5832000 	str	r2, [r3]
	while( !TCNTO3 );
 c1040b0:	e1a00000 	nop			; (mov r0, r0)
 c1040b4:	e59f3038 	ldr	r3, [pc, #56]	; c1040f4 <wait_for_1ms+0xb4>
 c1040b8:	e5933000 	ldr	r3, [r3]
 c1040bc:	e3530000 	cmp	r3, #0
 c1040c0:	0afffffb 	beq	c1040b4 <wait_for_1ms+0x74>
	while(TCNTO3);
 c1040c4:	e1a00000 	nop			; (mov r0, r0)
 c1040c8:	e59f3024 	ldr	r3, [pc, #36]	; c1040f4 <wait_for_1ms+0xb4>
 c1040cc:	e5933000 	ldr	r3, [r3]
 c1040d0:	e3530000 	cmp	r3, #0
 c1040d4:	1afffffb 	bne	c1040c8 <wait_for_1ms+0x88>
}
 c1040d8:	e24bd00c 	sub	sp, fp, #12
 c1040dc:	e89d6800 	ldm	sp, {fp, sp, lr}
 c1040e0:	e12fff1e 	bx	lr
 c1040e4:	01d50000 	.word	0x01d50000
 c1040e8:	01d50004 	.word	0x01d50004
 c1040ec:	01d50030 	.word	0x01d50030
 c1040f0:	01d50008 	.word	0x01d50008
 c1040f4:	01d50038 	.word	0x01d50038

0c1040f8 <wait_for_1s>:

void wait_for_1s(void){
 c1040f8:	e1a0c00d 	mov	ip, sp
 c1040fc:	e92dd800 	push	{fp, ip, lr, pc}
 c104100:	e24cb004 	sub	fp, ip, #4
	TCFG0 = (TCFG0 & ~(0XFF << 8)) | (63 << 8);
 c104104:	e59f3098 	ldr	r3, [pc, #152]	; c1041a4 <wait_for_1s+0xac>
 c104108:	e59f2094 	ldr	r2, [pc, #148]	; c1041a4 <wait_for_1s+0xac>
 c10410c:	e5922000 	ldr	r2, [r2]
 c104110:	e3c22cff 	bic	r2, r2, #65280	; 0xff00
 c104114:	e3822c3f 	orr	r2, r2, #16128	; 0x3f00
 c104118:	e5832000 	str	r2, [r3]
	TCFG1 = (TCFG1 & ~(0xf << 12)) | (4 << 12);
 c10411c:	e59f3084 	ldr	r3, [pc, #132]	; c1041a8 <wait_for_1s+0xb0>
 c104120:	e59f2080 	ldr	r2, [pc, #128]	; c1041a8 <wait_for_1s+0xb0>
 c104124:	e5922000 	ldr	r2, [r2]
 c104128:	e3c22a0f 	bic	r2, r2, #61440	; 0xf000
 c10412c:	e3822901 	orr	r2, r2, #16384	; 0x4000
 c104130:	e5832000 	str	r2, [r3]
	TCNTB3 = 31250;
 c104134:	e59f3070 	ldr	r3, [pc, #112]	; c1041ac <wait_for_1s+0xb4>
 c104138:	e59f2070 	ldr	r2, [pc, #112]	; c1041b0 <wait_for_1s+0xb8>
 c10413c:	e5832000 	str	r2, [r3]
	TCON = (TCON & ~(0xf << 16)) | (1 << 17);
 c104140:	e59f306c 	ldr	r3, [pc, #108]	; c1041b4 <wait_for_1s+0xbc>
 c104144:	e59f2068 	ldr	r2, [pc, #104]	; c1041b4 <wait_for_1s+0xbc>
 c104148:	e5922000 	ldr	r2, [r2]
 c10414c:	e3c2280f 	bic	r2, r2, #983040	; 0xf0000
 c104150:	e3822802 	orr	r2, r2, #131072	; 0x20000
 c104154:	e5832000 	str	r2, [r3]
	TCON = (TCON & ~(0xf << 16)) | (1 << 16);
 c104158:	e59f3054 	ldr	r3, [pc, #84]	; c1041b4 <wait_for_1s+0xbc>
 c10415c:	e59f2050 	ldr	r2, [pc, #80]	; c1041b4 <wait_for_1s+0xbc>
 c104160:	e5922000 	ldr	r2, [r2]
 c104164:	e3c2280f 	bic	r2, r2, #983040	; 0xf0000
 c104168:	e3822801 	orr	r2, r2, #65536	; 0x10000
 c10416c:	e5832000 	str	r2, [r3]
	while( !TCNTO3 );
 c104170:	e1a00000 	nop			; (mov r0, r0)
 c104174:	e59f303c 	ldr	r3, [pc, #60]	; c1041b8 <wait_for_1s+0xc0>
 c104178:	e5933000 	ldr	r3, [r3]
 c10417c:	e3530000 	cmp	r3, #0
 c104180:	0afffffb 	beq	c104174 <wait_for_1s+0x7c>
	while(TCNTO3);
 c104184:	e1a00000 	nop			; (mov r0, r0)
 c104188:	e59f3028 	ldr	r3, [pc, #40]	; c1041b8 <wait_for_1s+0xc0>
 c10418c:	e5933000 	ldr	r3, [r3]
 c104190:	e3530000 	cmp	r3, #0
 c104194:	1afffffb 	bne	c104188 <wait_for_1s+0x90>
}
 c104198:	e24bd00c 	sub	sp, fp, #12
 c10419c:	e89d6800 	ldm	sp, {fp, sp, lr}
 c1041a0:	e12fff1e 	bx	lr
 c1041a4:	01d50000 	.word	0x01d50000
 c1041a8:	01d50004 	.word	0x01d50004
 c1041ac:	01d50030 	.word	0x01d50030
 c1041b0:	00007a12 	.word	0x00007a12
 c1041b4:	01d50008 	.word	0x01d50008
 c1041b8:	01d50038 	.word	0x01d50038

0c1041bc <sw_delay_init>:

static void sw_delay_init( void )
{
 c1041bc:	e1a0c00d 	mov	ip, sp
 c1041c0:	e92dd810 	push	{r4, fp, ip, lr, pc}
 c1041c4:	e24cb004 	sub	fp, ip, #4
 c1041c8:	e24dd00c 	sub	sp, sp, #12
    uint32 i;
    
    timer3_start();
 c1041cc:	eb000075 	bl	c1043a8 <timer3_start>
    for( i=1000000; i; i--);
 c1041d0:	e59f3088 	ldr	r3, [pc, #136]	; c104260 <sw_delay_init+0xa4>
 c1041d4:	e50b3018 	str	r3, [fp, #-24]	; 0xffffffe8
 c1041d8:	ea000002 	b	c1041e8 <sw_delay_init+0x2c>
 c1041dc:	e51b3018 	ldr	r3, [fp, #-24]	; 0xffffffe8
 c1041e0:	e2433001 	sub	r3, r3, #1
 c1041e4:	e50b3018 	str	r3, [fp, #-24]	; 0xffffffe8
 c1041e8:	e51b3018 	ldr	r3, [fp, #-24]	; 0xffffffe8
 c1041ec:	e3530000 	cmp	r3, #0
 c1041f0:	1afffff9 	bne	c1041dc <sw_delay_init+0x20>
    loop_s = ((uint64)1000000*10000)/timer3_stop();
 c1041f4:	eb000097 	bl	c104458 <timer3_stop>
 c1041f8:	e1a03000 	mov	r3, r0
 c1041fc:	e1a02003 	mov	r2, r3
 c104200:	e1a03002 	mov	r3, r2
 c104204:	e3a04000 	mov	r4, #0
 c104208:	e3a00315 	mov	r0, #1409286144	; 0x54000000
 c10420c:	e2800abe 	add	r0, r0, #778240	; 0xbe000
 c104210:	e2800b01 	add	r0, r0, #1024	; 0x400
 c104214:	e3a01002 	mov	r1, #2
 c104218:	e1a02003 	mov	r2, r3
 c10421c:	e1a03004 	mov	r3, r4
 c104220:	eb000381 	bl	c10502c <__aeabi_uldivmod>
 c104224:	e1a03000 	mov	r3, r0
 c104228:	e1a04001 	mov	r4, r1
 c10422c:	e1a02003 	mov	r2, r3
 c104230:	e59f302c 	ldr	r3, [pc, #44]	; c104264 <sw_delay_init+0xa8>
 c104234:	e5832000 	str	r2, [r3]
    loop_ms = loop_s / 1000;
 c104238:	e59f3024 	ldr	r3, [pc, #36]	; c104264 <sw_delay_init+0xa8>
 c10423c:	e5932000 	ldr	r2, [r3]
 c104240:	e59f3020 	ldr	r3, [pc, #32]	; c104268 <sw_delay_init+0xac>
 c104244:	e0831392 	umull	r1, r3, r2, r3
 c104248:	e1a02323 	lsr	r2, r3, #6
 c10424c:	e59f3018 	ldr	r3, [pc, #24]	; c10426c <sw_delay_init+0xb0>
 c104250:	e5832000 	str	r2, [r3]
};
 c104254:	e24bd010 	sub	sp, fp, #16
 c104258:	e89d6810 	ldm	sp, {r4, fp, sp, lr}
 c10425c:	e12fff1e 	bx	lr
 c104260:	000f4240 	.word	0x000f4240
 c104264:	0c1072ac 	.word	0x0c1072ac
 c104268:	10624dd3 	.word	0x10624dd3
 c10426c:	0c1072a8 	.word	0x0c1072a8

0c104270 <timer3_delay_ms>:

void timer3_delay_ms( uint16 n )
{
 c104270:	e1a0c00d 	mov	ip, sp
 c104274:	e92dd800 	push	{fp, ip, lr, pc}
 c104278:	e24cb004 	sub	fp, ip, #4
 c10427c:	e24dd008 	sub	sp, sp, #8
 c104280:	e1a03000 	mov	r3, r0
 c104284:	e14b30be 	strh	r3, [fp, #-14]
    for( ; n; n-- )
 c104288:	ea000003 	b	c10429c <timer3_delay_ms+0x2c>
    {
        wait_for_1ms();
 c10428c:	ebffff6b 	bl	c104040 <wait_for_1ms>
    loop_ms = loop_s / 1000;
};

void timer3_delay_ms( uint16 n )
{
    for( ; n; n-- )
 c104290:	e15b30be 	ldrh	r3, [fp, #-14]
 c104294:	e2433001 	sub	r3, r3, #1
 c104298:	e14b30be 	strh	r3, [fp, #-14]
 c10429c:	e15b30be 	ldrh	r3, [fp, #-14]
 c1042a0:	e3530000 	cmp	r3, #0
 c1042a4:	1afffff8 	bne	c10428c <timer3_delay_ms+0x1c>
    {
        wait_for_1ms();
    }
}
 c1042a8:	e24bd00c 	sub	sp, fp, #12
 c1042ac:	e89d6800 	ldm	sp, {fp, sp, lr}
 c1042b0:	e12fff1e 	bx	lr

0c1042b4 <sw_delay_ms>:

void sw_delay_ms( uint16 n )
{
 c1042b4:	e1a0c00d 	mov	ip, sp
 c1042b8:	e92dd800 	push	{fp, ip, lr, pc}
 c1042bc:	e24cb004 	sub	fp, ip, #4
 c1042c0:	e24dd010 	sub	sp, sp, #16
 c1042c4:	e1a03000 	mov	r3, r0
 c1042c8:	e14b31b6 	strh	r3, [fp, #-22]	; 0xffffffea
    uint32 i;
    
    for( i=loop_ms*n; i; i-- );
 c1042cc:	e15b31b6 	ldrh	r3, [fp, #-22]	; 0xffffffea
 c1042d0:	e59f2030 	ldr	r2, [pc, #48]	; c104308 <sw_delay_ms+0x54>
 c1042d4:	e5922000 	ldr	r2, [r2]
 c1042d8:	e0030392 	mul	r3, r2, r3
 c1042dc:	e50b3010 	str	r3, [fp, #-16]
 c1042e0:	ea000002 	b	c1042f0 <sw_delay_ms+0x3c>
 c1042e4:	e51b3010 	ldr	r3, [fp, #-16]
 c1042e8:	e2433001 	sub	r3, r3, #1
 c1042ec:	e50b3010 	str	r3, [fp, #-16]
 c1042f0:	e51b3010 	ldr	r3, [fp, #-16]
 c1042f4:	e3530000 	cmp	r3, #0
 c1042f8:	1afffff9 	bne	c1042e4 <sw_delay_ms+0x30>
}
 c1042fc:	e24bd00c 	sub	sp, fp, #12
 c104300:	e89d6800 	ldm	sp, {fp, sp, lr}
 c104304:	e12fff1e 	bx	lr
 c104308:	0c1072a8 	.word	0x0c1072a8

0c10430c <timer3_delay_s>:


void timer3_delay_s( uint16 n )
{
 c10430c:	e1a0c00d 	mov	ip, sp
 c104310:	e92dd800 	push	{fp, ip, lr, pc}
 c104314:	e24cb004 	sub	fp, ip, #4
 c104318:	e24dd008 	sub	sp, sp, #8
 c10431c:	e1a03000 	mov	r3, r0
 c104320:	e14b30be 	strh	r3, [fp, #-14]
	for( ; n; n-- ){
 c104324:	ea000003 	b	c104338 <timer3_delay_s+0x2c>
	    wait_for_1s();
 c104328:	ebffff72 	bl	c1040f8 <wait_for_1s>
}


void timer3_delay_s( uint16 n )
{
	for( ; n; n-- ){
 c10432c:	e15b30be 	ldrh	r3, [fp, #-14]
 c104330:	e2433001 	sub	r3, r3, #1
 c104334:	e14b30be 	strh	r3, [fp, #-14]
 c104338:	e15b30be 	ldrh	r3, [fp, #-14]
 c10433c:	e3530000 	cmp	r3, #0
 c104340:	1afffff8 	bne	c104328 <timer3_delay_s+0x1c>
	    wait_for_1s();
	}
}
 c104344:	e24bd00c 	sub	sp, fp, #12
 c104348:	e89d6800 	ldm	sp, {fp, sp, lr}
 c10434c:	e12fff1e 	bx	lr

0c104350 <sw_delay_s>:

void sw_delay_s( uint16 n )
{
 c104350:	e1a0c00d 	mov	ip, sp
 c104354:	e92dd800 	push	{fp, ip, lr, pc}
 c104358:	e24cb004 	sub	fp, ip, #4
 c10435c:	e24dd010 	sub	sp, sp, #16
 c104360:	e1a03000 	mov	r3, r0
 c104364:	e14b31b6 	strh	r3, [fp, #-22]	; 0xffffffea
    uint32 i;
    
    for( i=loop_s*n; i; i-- );
 c104368:	e15b31b6 	ldrh	r3, [fp, #-22]	; 0xffffffea
 c10436c:	e59f2030 	ldr	r2, [pc, #48]	; c1043a4 <sw_delay_s+0x54>
 c104370:	e5922000 	ldr	r2, [r2]
 c104374:	e0030392 	mul	r3, r2, r3
 c104378:	e50b3010 	str	r3, [fp, #-16]
 c10437c:	ea000002 	b	c10438c <sw_delay_s+0x3c>
 c104380:	e51b3010 	ldr	r3, [fp, #-16]
 c104384:	e2433001 	sub	r3, r3, #1
 c104388:	e50b3010 	str	r3, [fp, #-16]
 c10438c:	e51b3010 	ldr	r3, [fp, #-16]
 c104390:	e3530000 	cmp	r3, #0
 c104394:	1afffff9 	bne	c104380 <sw_delay_s+0x30>
}
 c104398:	e24bd00c 	sub	sp, fp, #12
 c10439c:	e89d6800 	ldm	sp, {fp, sp, lr}
 c1043a0:	e12fff1e 	bx	lr
 c1043a4:	0c1072ac 	.word	0x0c1072ac

0c1043a8 <timer3_start>:

void timer3_start( void ) 
{
 c1043a8:	e1a0c00d 	mov	ip, sp
 c1043ac:	e92dd800 	push	{fp, ip, lr, pc}
 c1043b0:	e24cb004 	sub	fp, ip, #4
    TCFG0 = (TCFG0 & ~(0xff << 8)) | (199 << 8);
 c1043b4:	e59f3084 	ldr	r3, [pc, #132]	; c104440 <timer3_start+0x98>
 c1043b8:	e59f2080 	ldr	r2, [pc, #128]	; c104440 <timer3_start+0x98>
 c1043bc:	e5922000 	ldr	r2, [r2]
 c1043c0:	e3c22cff 	bic	r2, r2, #65280	; 0xff00
 c1043c4:	e3822cc7 	orr	r2, r2, #50944	; 0xc700
 c1043c8:	e5832000 	str	r2, [r3]
    TCFG1 = (TCFG1 & ~(0xf << 12)) | (4 << 12);
 c1043cc:	e59f3070 	ldr	r3, [pc, #112]	; c104444 <timer3_start+0x9c>
 c1043d0:	e59f206c 	ldr	r2, [pc, #108]	; c104444 <timer3_start+0x9c>
 c1043d4:	e5922000 	ldr	r2, [r2]
 c1043d8:	e3c22a0f 	bic	r2, r2, #61440	; 0xf000
 c1043dc:	e3822901 	orr	r2, r2, #16384	; 0x4000
 c1043e0:	e5832000 	str	r2, [r3]
    
    TCNTB3 = 0xffff; 
 c1043e4:	e59f305c 	ldr	r3, [pc, #92]	; c104448 <timer3_start+0xa0>
 c1043e8:	e59f205c 	ldr	r2, [pc, #92]	; c10444c <timer3_start+0xa4>
 c1043ec:	e5832000 	str	r2, [r3]
    TCON = (TCON & ~(0xf << 16)) | (1 << 17);
 c1043f0:	e59f3058 	ldr	r3, [pc, #88]	; c104450 <timer3_start+0xa8>
 c1043f4:	e59f2054 	ldr	r2, [pc, #84]	; c104450 <timer3_start+0xa8>
 c1043f8:	e5922000 	ldr	r2, [r2]
 c1043fc:	e3c2280f 	bic	r2, r2, #983040	; 0xf0000
 c104400:	e3822802 	orr	r2, r2, #131072	; 0x20000
 c104404:	e5832000 	str	r2, [r3]
    TCON = (TCON & ~(0xf << 16)) | (1 << 16);
 c104408:	e59f3040 	ldr	r3, [pc, #64]	; c104450 <timer3_start+0xa8>
 c10440c:	e59f203c 	ldr	r2, [pc, #60]	; c104450 <timer3_start+0xa8>
 c104410:	e5922000 	ldr	r2, [r2]
 c104414:	e3c2280f 	bic	r2, r2, #983040	; 0xf0000
 c104418:	e3822801 	orr	r2, r2, #65536	; 0x10000
 c10441c:	e5832000 	str	r2, [r3]
    while( !TCNTO3 );
 c104420:	e1a00000 	nop			; (mov r0, r0)
 c104424:	e59f3028 	ldr	r3, [pc, #40]	; c104454 <timer3_start+0xac>
 c104428:	e5933000 	ldr	r3, [r3]
 c10442c:	e3530000 	cmp	r3, #0
 c104430:	0afffffb 	beq	c104424 <timer3_start+0x7c>
}
 c104434:	e24bd00c 	sub	sp, fp, #12
 c104438:	e89d6800 	ldm	sp, {fp, sp, lr}
 c10443c:	e12fff1e 	bx	lr
 c104440:	01d50000 	.word	0x01d50000
 c104444:	01d50004 	.word	0x01d50004
 c104448:	01d50030 	.word	0x01d50030
 c10444c:	0000ffff 	.word	0x0000ffff
 c104450:	01d50008 	.word	0x01d50008
 c104454:	01d50038 	.word	0x01d50038

0c104458 <timer3_stop>:

uint16 timer3_stop( void )
{
 c104458:	e1a0c00d 	mov	ip, sp
 c10445c:	e92dd800 	push	{fp, ip, lr, pc}
 c104460:	e24cb004 	sub	fp, ip, #4
    TCON &= ~(1 << 16);
 c104464:	e59f3038 	ldr	r3, [pc, #56]	; c1044a4 <timer3_stop+0x4c>
 c104468:	e59f2034 	ldr	r2, [pc, #52]	; c1044a4 <timer3_stop+0x4c>
 c10446c:	e5922000 	ldr	r2, [r2]
 c104470:	e3c22801 	bic	r2, r2, #65536	; 0x10000
 c104474:	e5832000 	str	r2, [r3]
    return 0xffff - TCNTO3;
 c104478:	e59f3028 	ldr	r3, [pc, #40]	; c1044a8 <timer3_stop+0x50>
 c10447c:	e5933000 	ldr	r3, [r3]
 c104480:	e1a03803 	lsl	r3, r3, #16
 c104484:	e1a03823 	lsr	r3, r3, #16
 c104488:	e1e03003 	mvn	r3, r3
 c10448c:	e1a03803 	lsl	r3, r3, #16
 c104490:	e1a03823 	lsr	r3, r3, #16
}
 c104494:	e1a00003 	mov	r0, r3
 c104498:	e24bd00c 	sub	sp, fp, #12
 c10449c:	e89d6800 	ldm	sp, {fp, sp, lr}
 c1044a0:	e12fff1e 	bx	lr
 c1044a4:	01d50008 	.word	0x01d50008
 c1044a8:	01d50038 	.word	0x01d50038

0c1044ac <timer3_start_timeout>:

void timer3_start_timeout( uint16 n ) 
{
 c1044ac:	e1a0c00d 	mov	ip, sp
 c1044b0:	e92dd800 	push	{fp, ip, lr, pc}
 c1044b4:	e24cb004 	sub	fp, ip, #4
 c1044b8:	e24dd008 	sub	sp, sp, #8
 c1044bc:	e1a03000 	mov	r3, r0
 c1044c0:	e14b30be 	strh	r3, [fp, #-14]
    TCFG0 = (TCFG0 & ~(0xff << 8)) | (199 << 8);          
 c1044c4:	e59f3084 	ldr	r3, [pc, #132]	; c104550 <timer3_start_timeout+0xa4>
 c1044c8:	e59f2080 	ldr	r2, [pc, #128]	; c104550 <timer3_start_timeout+0xa4>
 c1044cc:	e5922000 	ldr	r2, [r2]
 c1044d0:	e3c22cff 	bic	r2, r2, #65280	; 0xff00
 c1044d4:	e3822cc7 	orr	r2, r2, #50944	; 0xc700
 c1044d8:	e5832000 	str	r2, [r3]
    TCFG1 = (TCFG1 & ~(0xf << 12)) | (4 << 12);
 c1044dc:	e59f3070 	ldr	r3, [pc, #112]	; c104554 <timer3_start_timeout+0xa8>
 c1044e0:	e59f206c 	ldr	r2, [pc, #108]	; c104554 <timer3_start_timeout+0xa8>
 c1044e4:	e5922000 	ldr	r2, [r2]
 c1044e8:	e3c22a0f 	bic	r2, r2, #61440	; 0xf000
 c1044ec:	e3822901 	orr	r2, r2, #16384	; 0x4000
 c1044f0:	e5832000 	str	r2, [r3]
    
    TCNTB3 = n; 
 c1044f4:	e59f305c 	ldr	r3, [pc, #92]	; c104558 <timer3_start_timeout+0xac>
 c1044f8:	e15b20be 	ldrh	r2, [fp, #-14]
 c1044fc:	e5832000 	str	r2, [r3]
    TCON = (TCON & ~(0xf << 16)) | (1 << 17);
 c104500:	e59f3054 	ldr	r3, [pc, #84]	; c10455c <timer3_start_timeout+0xb0>
 c104504:	e59f2050 	ldr	r2, [pc, #80]	; c10455c <timer3_start_timeout+0xb0>
 c104508:	e5922000 	ldr	r2, [r2]
 c10450c:	e3c2280f 	bic	r2, r2, #983040	; 0xf0000
 c104510:	e3822802 	orr	r2, r2, #131072	; 0x20000
 c104514:	e5832000 	str	r2, [r3]
    TCON = (TCON & ~(0xf << 16)) | (1 << 16);
 c104518:	e59f303c 	ldr	r3, [pc, #60]	; c10455c <timer3_start_timeout+0xb0>
 c10451c:	e59f2038 	ldr	r2, [pc, #56]	; c10455c <timer3_start_timeout+0xb0>
 c104520:	e5922000 	ldr	r2, [r2]
 c104524:	e3c2280f 	bic	r2, r2, #983040	; 0xf0000
 c104528:	e3822801 	orr	r2, r2, #65536	; 0x10000
 c10452c:	e5832000 	str	r2, [r3]
    while( !TCNTO3 );
 c104530:	e1a00000 	nop			; (mov r0, r0)
 c104534:	e59f3024 	ldr	r3, [pc, #36]	; c104560 <timer3_start_timeout+0xb4>
 c104538:	e5933000 	ldr	r3, [r3]
 c10453c:	e3530000 	cmp	r3, #0
 c104540:	0afffffb 	beq	c104534 <timer3_start_timeout+0x88>
}
 c104544:	e24bd00c 	sub	sp, fp, #12
 c104548:	e89d6800 	ldm	sp, {fp, sp, lr}
 c10454c:	e12fff1e 	bx	lr
 c104550:	01d50000 	.word	0x01d50000
 c104554:	01d50004 	.word	0x01d50004
 c104558:	01d50030 	.word	0x01d50030
 c10455c:	01d50008 	.word	0x01d50008
 c104560:	01d50038 	.word	0x01d50038

0c104564 <timer3_timeout>:

uint16 timer3_timeout( )
{
 c104564:	e1a0c00d 	mov	ip, sp
 c104568:	e92dd800 	push	{fp, ip, lr, pc}
 c10456c:	e24cb004 	sub	fp, ip, #4
    return !TCNTO3;
 c104570:	e59f3024 	ldr	r3, [pc, #36]	; c10459c <timer3_timeout+0x38>
 c104574:	e5933000 	ldr	r3, [r3]
 c104578:	e3530000 	cmp	r3, #0
 c10457c:	13a03000 	movne	r3, #0
 c104580:	03a03001 	moveq	r3, #1
 c104584:	e1a03803 	lsl	r3, r3, #16
 c104588:	e1a03823 	lsr	r3, r3, #16
}    
 c10458c:	e1a00003 	mov	r0, r3
 c104590:	e24bd00c 	sub	sp, fp, #12
 c104594:	e89d6800 	ldm	sp, {fp, sp, lr}
 c104598:	e12fff1e 	bx	lr
 c10459c:	01d50038 	.word	0x01d50038

0c1045a0 <timer0_open_tick>:

void timer0_open_tick( void (*isr)(void), uint16 tps )
{
 c1045a0:	e1a0c00d 	mov	ip, sp
 c1045a4:	e92dd810 	push	{r4, fp, ip, lr, pc}
 c1045a8:	e24cb004 	sub	fp, ip, #4
 c1045ac:	e24dd00c 	sub	sp, sp, #12
 c1045b0:	e50b0018 	str	r0, [fp, #-24]	; 0xffffffe8
 c1045b4:	e1a03001 	mov	r3, r1
 c1045b8:	e14b31ba 	strh	r3, [fp, #-26]	; 0xffffffe6
    pISR_TIMER0 = (uint32)isr;
 c1045bc:	e59f31f0 	ldr	r3, [pc, #496]	; c1047b4 <timer0_open_tick+0x214>
 c1045c0:	e51b2018 	ldr	r2, [fp, #-24]	; 0xffffffe8
 c1045c4:	e5832000 	str	r2, [r3]
    I_ISPC      = BIT_TIMER0;
 c1045c8:	e59f31e8 	ldr	r3, [pc, #488]	; c1047b8 <timer0_open_tick+0x218>
 c1045cc:	e3a02a02 	mov	r2, #8192	; 0x2000
 c1045d0:	e5832000 	str	r2, [r3]
    INTMSK     &= ~(BIT_GLOBAL | BIT_TIMER0);
 c1045d4:	e59f21e0 	ldr	r2, [pc, #480]	; c1047bc <timer0_open_tick+0x21c>
 c1045d8:	e59f31dc 	ldr	r3, [pc, #476]	; c1047bc <timer0_open_tick+0x21c>
 c1045dc:	e5933000 	ldr	r3, [r3]
 c1045e0:	e3c33301 	bic	r3, r3, #67108864	; 0x4000000
 c1045e4:	e3c33a02 	bic	r3, r3, #8192	; 0x2000
 c1045e8:	e5823000 	str	r3, [r2]

    if( tps > 0 && tps <= 10 ) {
 c1045ec:	e15b31ba 	ldrh	r3, [fp, #-26]	; 0xffffffe6
 c1045f0:	e3530000 	cmp	r3, #0
 c1045f4:	0a000018 	beq	c10465c <timer0_open_tick+0xbc>
 c1045f8:	e15b31ba 	ldrh	r3, [fp, #-26]	; 0xffffffe6
 c1045fc:	e353000a 	cmp	r3, #10
 c104600:	8a000015 	bhi	c10465c <timer0_open_tick+0xbc>
        TCFG0  = (TCFG0 & ~(0xff)) | (49);
 c104604:	e59f31b4 	ldr	r3, [pc, #436]	; c1047c0 <timer0_open_tick+0x220>
 c104608:	e59f21b0 	ldr	r2, [pc, #432]	; c1047c0 <timer0_open_tick+0x220>
 c10460c:	e5922000 	ldr	r2, [r2]
 c104610:	e3c220ff 	bic	r2, r2, #255	; 0xff
 c104614:	e3822031 	orr	r2, r2, #49	; 0x31
 c104618:	e5832000 	str	r2, [r3]
        TCFG1  = (TCFG1 & ~(0xf)) | (4);
 c10461c:	e59f31a0 	ldr	r3, [pc, #416]	; c1047c4 <timer0_open_tick+0x224>
 c104620:	e59f219c 	ldr	r2, [pc, #412]	; c1047c4 <timer0_open_tick+0x224>
 c104624:	e5922000 	ldr	r2, [r2]
 c104628:	e3c2200f 	bic	r2, r2, #15
 c10462c:	e3822004 	orr	r2, r2, #4
 c104630:	e5832000 	str	r2, [r3]
        TCNTB0 = (40000U / tps);
 c104634:	e59f418c 	ldr	r4, [pc, #396]	; c1047c8 <timer0_open_tick+0x228>
 c104638:	e15b31ba 	ldrh	r3, [fp, #-26]	; 0xffffffe6
 c10463c:	e59f0188 	ldr	r0, [pc, #392]	; c1047cc <timer0_open_tick+0x22c>
 c104640:	e1a01003 	mov	r1, r3
 c104644:	eb000232 	bl	c104f14 <__aeabi_uidiv>
 c104648:	e1a03000 	mov	r3, r0
 c10464c:	e1a03803 	lsl	r3, r3, #16
 c104650:	e1a03823 	lsr	r3, r3, #16
 c104654:	e5843000 	str	r3, [r4]
 c104658:	ea000046 	b	c104778 <timer0_open_tick+0x1d8>
    } else if( tps > 10 && tps <= 100 ) {
 c10465c:	e15b31ba 	ldrh	r3, [fp, #-26]	; 0xffffffe6
 c104660:	e353000a 	cmp	r3, #10
 c104664:	9a000016 	bls	c1046c4 <timer0_open_tick+0x124>
 c104668:	e15b31ba 	ldrh	r3, [fp, #-26]	; 0xffffffe6
 c10466c:	e3530064 	cmp	r3, #100	; 0x64
 c104670:	8a000013 	bhi	c1046c4 <timer0_open_tick+0x124>
        TCFG0  = (TCFG0 & ~(0xff)) | (19);
 c104674:	e59f3144 	ldr	r3, [pc, #324]	; c1047c0 <timer0_open_tick+0x220>
 c104678:	e59f2140 	ldr	r2, [pc, #320]	; c1047c0 <timer0_open_tick+0x220>
 c10467c:	e5922000 	ldr	r2, [r2]
 c104680:	e3c220ff 	bic	r2, r2, #255	; 0xff
 c104684:	e3822013 	orr	r2, r2, #19
 c104688:	e5832000 	str	r2, [r3]
        TCFG1  = (TCFG1 & ~(0xf)) | (2);
 c10468c:	e59f3130 	ldr	r3, [pc, #304]	; c1047c4 <timer0_open_tick+0x224>
 c104690:	e59f212c 	ldr	r2, [pc, #300]	; c1047c4 <timer0_open_tick+0x224>
 c104694:	e5922000 	ldr	r2, [r2]
 c104698:	e3c2200f 	bic	r2, r2, #15
 c10469c:	e3822002 	orr	r2, r2, #2
 c1046a0:	e5832000 	str	r2, [r3]
        TCNTB0 = (400000U / (uint32) tps);
 c1046a4:	e59f411c 	ldr	r4, [pc, #284]	; c1047c8 <timer0_open_tick+0x228>
 c1046a8:	e15b31ba 	ldrh	r3, [fp, #-26]	; 0xffffffe6
 c1046ac:	e59f011c 	ldr	r0, [pc, #284]	; c1047d0 <timer0_open_tick+0x230>
 c1046b0:	e1a01003 	mov	r1, r3
 c1046b4:	eb000216 	bl	c104f14 <__aeabi_uidiv>
 c1046b8:	e1a03000 	mov	r3, r0
 c1046bc:	e5843000 	str	r3, [r4]
 c1046c0:	ea00002c 	b	c104778 <timer0_open_tick+0x1d8>
    } else if( tps > 100 && tps <= 1000 ) {
 c1046c4:	e15b31ba 	ldrh	r3, [fp, #-26]	; 0xffffffe6
 c1046c8:	e3530064 	cmp	r3, #100	; 0x64
 c1046cc:	9a000015 	bls	c104728 <timer0_open_tick+0x188>
 c1046d0:	e15b31ba 	ldrh	r3, [fp, #-26]	; 0xffffffe6
 c1046d4:	e3530ffa 	cmp	r3, #1000	; 0x3e8
 c1046d8:	8a000012 	bhi	c104728 <timer0_open_tick+0x188>
        TCFG0  = (TCFG0 & ~(0xff)) | (7);
 c1046dc:	e59f30dc 	ldr	r3, [pc, #220]	; c1047c0 <timer0_open_tick+0x220>
 c1046e0:	e59f20d8 	ldr	r2, [pc, #216]	; c1047c0 <timer0_open_tick+0x220>
 c1046e4:	e5922000 	ldr	r2, [r2]
 c1046e8:	e3c220ff 	bic	r2, r2, #255	; 0xff
 c1046ec:	e3822007 	orr	r2, r2, #7
 c1046f0:	e5832000 	str	r2, [r3]
        TCFG1  = (TCFG1 & ~(0xf)) | (0);
 c1046f4:	e59f30c8 	ldr	r3, [pc, #200]	; c1047c4 <timer0_open_tick+0x224>
 c1046f8:	e59f20c4 	ldr	r2, [pc, #196]	; c1047c4 <timer0_open_tick+0x224>
 c1046fc:	e5922000 	ldr	r2, [r2]
 c104700:	e3c2200f 	bic	r2, r2, #15
 c104704:	e5832000 	str	r2, [r3]
        TCNTB0 = (4000000U / (uint32) tps);
 c104708:	e59f40b8 	ldr	r4, [pc, #184]	; c1047c8 <timer0_open_tick+0x228>
 c10470c:	e15b31ba 	ldrh	r3, [fp, #-26]	; 0xffffffe6
 c104710:	e59f00bc 	ldr	r0, [pc, #188]	; c1047d4 <timer0_open_tick+0x234>
 c104714:	e1a01003 	mov	r1, r3
 c104718:	eb0001fd 	bl	c104f14 <__aeabi_uidiv>
 c10471c:	e1a03000 	mov	r3, r0
 c104720:	e5843000 	str	r3, [r4]
 c104724:	ea000013 	b	c104778 <timer0_open_tick+0x1d8>
    } else if ( tps > 1000 ) {
 c104728:	e15b31ba 	ldrh	r3, [fp, #-26]	; 0xffffffe6
 c10472c:	e3530ffa 	cmp	r3, #1000	; 0x3e8
 c104730:	9a000010 	bls	c104778 <timer0_open_tick+0x1d8>
        TCFG0  = (TCFG0 & ~(0xff));
 c104734:	e59f3084 	ldr	r3, [pc, #132]	; c1047c0 <timer0_open_tick+0x220>
 c104738:	e59f2080 	ldr	r2, [pc, #128]	; c1047c0 <timer0_open_tick+0x220>
 c10473c:	e5922000 	ldr	r2, [r2]
 c104740:	e3c220ff 	bic	r2, r2, #255	; 0xff
 c104744:	e5832000 	str	r2, [r3]
        TCFG1  = (TCFG1 & ~(0xf));
 c104748:	e59f3074 	ldr	r3, [pc, #116]	; c1047c4 <timer0_open_tick+0x224>
 c10474c:	e59f2070 	ldr	r2, [pc, #112]	; c1047c4 <timer0_open_tick+0x224>
 c104750:	e5922000 	ldr	r2, [r2]
 c104754:	e3c2200f 	bic	r2, r2, #15
 c104758:	e5832000 	str	r2, [r3]
        TCNTB0 = (32000000U / (uint32) tps);
 c10475c:	e59f4064 	ldr	r4, [pc, #100]	; c1047c8 <timer0_open_tick+0x228>
 c104760:	e15b31ba 	ldrh	r3, [fp, #-26]	; 0xffffffe6
 c104764:	e59f006c 	ldr	r0, [pc, #108]	; c1047d8 <timer0_open_tick+0x238>
 c104768:	e1a01003 	mov	r1, r3
 c10476c:	eb0001e8 	bl	c104f14 <__aeabi_uidiv>
 c104770:	e1a03000 	mov	r3, r0
 c104774:	e5843000 	str	r3, [r4]
    }

    TCON = (TCON & ~(0xf << 0)) | (1 << 3) | (1 << 1);
 c104778:	e59f305c 	ldr	r3, [pc, #92]	; c1047dc <timer0_open_tick+0x23c>
 c10477c:	e59f2058 	ldr	r2, [pc, #88]	; c1047dc <timer0_open_tick+0x23c>
 c104780:	e5922000 	ldr	r2, [r2]
 c104784:	e3c2200f 	bic	r2, r2, #15
 c104788:	e382200a 	orr	r2, r2, #10
 c10478c:	e5832000 	str	r2, [r3]
    TCON = (TCON & ~(0xf << 0)) | (1 << 3) | (1 << 0);
 c104790:	e59f3044 	ldr	r3, [pc, #68]	; c1047dc <timer0_open_tick+0x23c>
 c104794:	e59f2040 	ldr	r2, [pc, #64]	; c1047dc <timer0_open_tick+0x23c>
 c104798:	e5922000 	ldr	r2, [r2]
 c10479c:	e3c2200f 	bic	r2, r2, #15
 c1047a0:	e3822009 	orr	r2, r2, #9
 c1047a4:	e5832000 	str	r2, [r3]
}
 c1047a8:	e24bd010 	sub	sp, fp, #16
 c1047ac:	e89d6810 	ldm	sp, {r4, fp, sp, lr}
 c1047b0:	e12fff1e 	bx	lr
 c1047b4:	0c7fff54 	.word	0x0c7fff54
 c1047b8:	01e00024 	.word	0x01e00024
 c1047bc:	01e0000c 	.word	0x01e0000c
 c1047c0:	01d50000 	.word	0x01d50000
 c1047c4:	01d50004 	.word	0x01d50004
 c1047c8:	01d5000c 	.word	0x01d5000c
 c1047cc:	00009c40 	.word	0x00009c40
 c1047d0:	00061a80 	.word	0x00061a80
 c1047d4:	003d0900 	.word	0x003d0900
 c1047d8:	01e84800 	.word	0x01e84800
 c1047dc:	01d50008 	.word	0x01d50008

0c1047e0 <timer0_open_ms>:

void timer0_open_ms( void (*isr)(void), uint16 ms, uint8 mode )
{
 c1047e0:	e1a0c00d 	mov	ip, sp
 c1047e4:	e92dd800 	push	{fp, ip, lr, pc}
 c1047e8:	e24cb004 	sub	fp, ip, #4
 c1047ec:	e24dd008 	sub	sp, sp, #8
 c1047f0:	e50b0010 	str	r0, [fp, #-16]
 c1047f4:	e1a03002 	mov	r3, r2
 c1047f8:	e14b11b2 	strh	r1, [fp, #-18]	; 0xffffffee
 c1047fc:	e54b3013 	strb	r3, [fp, #-19]	; 0xffffffed
    pISR_TIMER0 = (uint32)isr;
 c104800:	e59f30c8 	ldr	r3, [pc, #200]	; c1048d0 <timer0_open_ms+0xf0>
 c104804:	e51b2010 	ldr	r2, [fp, #-16]
 c104808:	e5832000 	str	r2, [r3]
    I_ISPC      = BIT_TIMER0;
 c10480c:	e59f30c0 	ldr	r3, [pc, #192]	; c1048d4 <timer0_open_ms+0xf4>
 c104810:	e3a02a02 	mov	r2, #8192	; 0x2000
 c104814:	e5832000 	str	r2, [r3]
    INTMSK     &= ~(BIT_GLOBAL | BIT_TIMER0);
 c104818:	e59f20b8 	ldr	r2, [pc, #184]	; c1048d8 <timer0_open_ms+0xf8>
 c10481c:	e59f30b4 	ldr	r3, [pc, #180]	; c1048d8 <timer0_open_ms+0xf8>
 c104820:	e5933000 	ldr	r3, [r3]
 c104824:	e3c33301 	bic	r3, r3, #67108864	; 0x4000000
 c104828:	e3c33a02 	bic	r3, r3, #8192	; 0x2000
 c10482c:	e5823000 	str	r3, [r2]

    TCFG0 = (TCFG0 & ~(0xff << 0)) | (199);
 c104830:	e59f30a4 	ldr	r3, [pc, #164]	; c1048dc <timer0_open_ms+0xfc>
 c104834:	e59f20a0 	ldr	r2, [pc, #160]	; c1048dc <timer0_open_ms+0xfc>
 c104838:	e5922000 	ldr	r2, [r2]
 c10483c:	e3c220ff 	bic	r2, r2, #255	; 0xff
 c104840:	e38220c7 	orr	r2, r2, #199	; 0xc7
 c104844:	e5832000 	str	r2, [r3]
    TCFG1 = (TCFG1 & ~(0xf << 0)) | (4);
 c104848:	e59f3090 	ldr	r3, [pc, #144]	; c1048e0 <timer0_open_ms+0x100>
 c10484c:	e59f208c 	ldr	r2, [pc, #140]	; c1048e0 <timer0_open_ms+0x100>
 c104850:	e5922000 	ldr	r2, [r2]
 c104854:	e3c2200f 	bic	r2, r2, #15
 c104858:	e3822004 	orr	r2, r2, #4
 c10485c:	e5832000 	str	r2, [r3]
    TCNTB0 = 10*ms;
 c104860:	e59f107c 	ldr	r1, [pc, #124]	; c1048e4 <timer0_open_ms+0x104>
 c104864:	e15b21b2 	ldrh	r2, [fp, #-18]	; 0xffffffee
 c104868:	e1a03002 	mov	r3, r2
 c10486c:	e1a03103 	lsl	r3, r3, #2
 c104870:	e0833002 	add	r3, r3, r2
 c104874:	e1a03083 	lsl	r3, r3, #1
 c104878:	e5813000 	str	r3, [r1]

    TCON = (TCON & ~(0xf << 0)) | (mode << 3) | (1 << 1);
 c10487c:	e59f3064 	ldr	r3, [pc, #100]	; c1048e8 <timer0_open_ms+0x108>
 c104880:	e59f2060 	ldr	r2, [pc, #96]	; c1048e8 <timer0_open_ms+0x108>
 c104884:	e5922000 	ldr	r2, [r2]
 c104888:	e3c2100f 	bic	r1, r2, #15
 c10488c:	e55b2013 	ldrb	r2, [fp, #-19]	; 0xffffffed
 c104890:	e1a02182 	lsl	r2, r2, #3
 c104894:	e1812002 	orr	r2, r1, r2
 c104898:	e3822002 	orr	r2, r2, #2
 c10489c:	e5832000 	str	r2, [r3]
    TCON = (TCON & ~(0xf << 0)) | (mode << 3) | (1 << 0);
 c1048a0:	e59f3040 	ldr	r3, [pc, #64]	; c1048e8 <timer0_open_ms+0x108>
 c1048a4:	e59f203c 	ldr	r2, [pc, #60]	; c1048e8 <timer0_open_ms+0x108>
 c1048a8:	e5922000 	ldr	r2, [r2]
 c1048ac:	e3c2100f 	bic	r1, r2, #15
 c1048b0:	e55b2013 	ldrb	r2, [fp, #-19]	; 0xffffffed
 c1048b4:	e1a02182 	lsl	r2, r2, #3
 c1048b8:	e1812002 	orr	r2, r1, r2
 c1048bc:	e3822001 	orr	r2, r2, #1
 c1048c0:	e5832000 	str	r2, [r3]
}
 c1048c4:	e24bd00c 	sub	sp, fp, #12
 c1048c8:	e89d6800 	ldm	sp, {fp, sp, lr}
 c1048cc:	e12fff1e 	bx	lr
 c1048d0:	0c7fff54 	.word	0x0c7fff54
 c1048d4:	01e00024 	.word	0x01e00024
 c1048d8:	01e0000c 	.word	0x01e0000c
 c1048dc:	01d50000 	.word	0x01d50000
 c1048e0:	01d50004 	.word	0x01d50004
 c1048e4:	01d5000c 	.word	0x01d5000c
 c1048e8:	01d50008 	.word	0x01d50008

0c1048ec <timer0_close>:

void timer0_close( void )
{
 c1048ec:	e1a0c00d 	mov	ip, sp
 c1048f0:	e92dd800 	push	{fp, ip, lr, pc}
 c1048f4:	e24cb004 	sub	fp, ip, #4
    TCNTB0 = 0x00000;
 c1048f8:	e59f306c 	ldr	r3, [pc, #108]	; c10496c <timer0_close+0x80>
 c1048fc:	e3a02000 	mov	r2, #0
 c104900:	e5832000 	str	r2, [r3]
    TCMPB0 = 0x00000;
 c104904:	e59f3064 	ldr	r3, [pc, #100]	; c104970 <timer0_close+0x84>
 c104908:	e3a02000 	mov	r2, #0
 c10490c:	e5832000 	str	r2, [r3]

    TCON = (TCON & ~(0xf << 0)) | (1 << 1);
 c104910:	e59f305c 	ldr	r3, [pc, #92]	; c104974 <timer0_close+0x88>
 c104914:	e59f2058 	ldr	r2, [pc, #88]	; c104974 <timer0_close+0x88>
 c104918:	e5922000 	ldr	r2, [r2]
 c10491c:	e3c2200f 	bic	r2, r2, #15
 c104920:	e3822002 	orr	r2, r2, #2
 c104924:	e5832000 	str	r2, [r3]
    TCON = (TCON & ~(0xf << 0)) | (1 << 0);
 c104928:	e59f3044 	ldr	r3, [pc, #68]	; c104974 <timer0_close+0x88>
 c10492c:	e59f2040 	ldr	r2, [pc, #64]	; c104974 <timer0_close+0x88>
 c104930:	e5922000 	ldr	r2, [r2]
 c104934:	e3c2200f 	bic	r2, r2, #15
 c104938:	e3822001 	orr	r2, r2, #1
 c10493c:	e5832000 	str	r2, [r3]
    
    INTMSK     |= BIT_TIMER0;
 c104940:	e59f3030 	ldr	r3, [pc, #48]	; c104978 <timer0_close+0x8c>
 c104944:	e59f202c 	ldr	r2, [pc, #44]	; c104978 <timer0_close+0x8c>
 c104948:	e5922000 	ldr	r2, [r2]
 c10494c:	e3822a02 	orr	r2, r2, #8192	; 0x2000
 c104950:	e5832000 	str	r2, [r3]
    pISR_TIMER0 = (uint32)isr_TIMER0_dummy;
 c104954:	e59f3020 	ldr	r3, [pc, #32]	; c10497c <timer0_close+0x90>
 c104958:	e59f2020 	ldr	r2, [pc, #32]	; c104980 <timer0_close+0x94>
 c10495c:	e5832000 	str	r2, [r3]
}
 c104960:	e24bd00c 	sub	sp, fp, #12
 c104964:	e89d6800 	ldm	sp, {fp, sp, lr}
 c104968:	e12fff1e 	bx	lr
 c10496c:	01d5000c 	.word	0x01d5000c
 c104970:	01d50010 	.word	0x01d50010
 c104974:	01d50008 	.word	0x01d50008
 c104978:	01e0000c 	.word	0x01e0000c
 c10497c:	0c7fff54 	.word	0x0c7fff54
 c104980:	0c103a7c 	.word	0x0c103a7c

0c104984 <uart0_init>:
#include <s3c44b0x.h>
#include <uart.h>

void uart0_init( void )
{
 c104984:	e1a0c00d 	mov	ip, sp
 c104988:	e92dd800 	push	{fp, ip, lr, pc}
 c10498c:	e24cb004 	sub	fp, ip, #4
    UFCON0 = 0x1;
 c104990:	e59f3040 	ldr	r3, [pc, #64]	; c1049d8 <uart0_init+0x54>
 c104994:	e3a02001 	mov	r2, #1
 c104998:	e5832000 	str	r2, [r3]
    UMCON0 = 0x0;
 c10499c:	e59f3038 	ldr	r3, [pc, #56]	; c1049dc <uart0_init+0x58>
 c1049a0:	e3a02000 	mov	r2, #0
 c1049a4:	e5832000 	str	r2, [r3]
    ULCON0 = 0x3;
 c1049a8:	e3a0361d 	mov	r3, #30408704	; 0x1d00000
 c1049ac:	e3a02003 	mov	r2, #3
 c1049b0:	e5832000 	str	r2, [r3]
    UBRDIV0 = 0x22;
 c1049b4:	e59f3024 	ldr	r3, [pc, #36]	; c1049e0 <uart0_init+0x5c>
 c1049b8:	e3a02022 	mov	r2, #34	; 0x22
 c1049bc:	e5832000 	str	r2, [r3]
    UCON0 = 0x5;
 c1049c0:	e59f301c 	ldr	r3, [pc, #28]	; c1049e4 <uart0_init+0x60>
 c1049c4:	e3a02005 	mov	r2, #5
 c1049c8:	e5832000 	str	r2, [r3]
}
 c1049cc:	e24bd00c 	sub	sp, fp, #12
 c1049d0:	e89d6800 	ldm	sp, {fp, sp, lr}
 c1049d4:	e12fff1e 	bx	lr
 c1049d8:	01d00008 	.word	0x01d00008
 c1049dc:	01d0000c 	.word	0x01d0000c
 c1049e0:	01d00028 	.word	0x01d00028
 c1049e4:	01d00004 	.word	0x01d00004

0c1049e8 <uart0_putchar>:

void uart0_putchar( char ch )
{
 c1049e8:	e1a0c00d 	mov	ip, sp
 c1049ec:	e92dd800 	push	{fp, ip, lr, pc}
 c1049f0:	e24cb004 	sub	fp, ip, #4
 c1049f4:	e24dd008 	sub	sp, sp, #8
 c1049f8:	e1a03000 	mov	r3, r0
 c1049fc:	e54b300d 	strb	r3, [fp, #-13]
    while((UFSTAT0 & (1 << 9)));
 c104a00:	e1a00000 	nop			; (mov r0, r0)
 c104a04:	e59f3024 	ldr	r3, [pc, #36]	; c104a30 <uart0_putchar+0x48>
 c104a08:	e5933000 	ldr	r3, [r3]
 c104a0c:	e2033c02 	and	r3, r3, #512	; 0x200
 c104a10:	e3530000 	cmp	r3, #0
 c104a14:	1afffffa 	bne	c104a04 <uart0_putchar+0x1c>
    UTXH0 = ch;
 c104a18:	e59f3014 	ldr	r3, [pc, #20]	; c104a34 <uart0_putchar+0x4c>
 c104a1c:	e55b200d 	ldrb	r2, [fp, #-13]
 c104a20:	e5832000 	str	r2, [r3]
}        
 c104a24:	e24bd00c 	sub	sp, fp, #12
 c104a28:	e89d6800 	ldm	sp, {fp, sp, lr}
 c104a2c:	e12fff1e 	bx	lr
 c104a30:	01d00018 	.word	0x01d00018
 c104a34:	01d00020 	.word	0x01d00020

0c104a38 <uart0_getchar>:

char uart0_getchar( void )
{
 c104a38:	e1a0c00d 	mov	ip, sp
 c104a3c:	e92dd800 	push	{fp, ip, lr, pc}
 c104a40:	e24cb004 	sub	fp, ip, #4
    while(!(UFSTAT0 & 0xf));
 c104a44:	e1a00000 	nop			; (mov r0, r0)
 c104a48:	e59f3028 	ldr	r3, [pc, #40]	; c104a78 <uart0_getchar+0x40>
 c104a4c:	e5933000 	ldr	r3, [r3]
 c104a50:	e203300f 	and	r3, r3, #15
 c104a54:	e3530000 	cmp	r3, #0
 c104a58:	0afffffa 	beq	c104a48 <uart0_getchar+0x10>
    return URXH0;
 c104a5c:	e59f3018 	ldr	r3, [pc, #24]	; c104a7c <uart0_getchar+0x44>
 c104a60:	e5933000 	ldr	r3, [r3]
 c104a64:	e20330ff 	and	r3, r3, #255	; 0xff
}
 c104a68:	e1a00003 	mov	r0, r3
 c104a6c:	e24bd00c 	sub	sp, fp, #12
 c104a70:	e89d6800 	ldm	sp, {fp, sp, lr}
 c104a74:	e12fff1e 	bx	lr
 c104a78:	01d00018 	.word	0x01d00018
 c104a7c:	01d00024 	.word	0x01d00024

0c104a80 <uart0_puts>:

void uart0_puts( char *s )
{
 c104a80:	e1a0c00d 	mov	ip, sp
 c104a84:	e92dd800 	push	{fp, ip, lr, pc}
 c104a88:	e24cb004 	sub	fp, ip, #4
 c104a8c:	e24dd008 	sub	sp, sp, #8
 c104a90:	e50b0010 	str	r0, [fp, #-16]
    while (*s != '\0'){
 c104a94:	ea000006 	b	c104ab4 <uart0_puts+0x34>
    	uart0_putchar(*s);
 c104a98:	e51b3010 	ldr	r3, [fp, #-16]
 c104a9c:	e5d33000 	ldrb	r3, [r3]
 c104aa0:	e1a00003 	mov	r0, r3
 c104aa4:	ebffffcf 	bl	c1049e8 <uart0_putchar>
    	*++s;
 c104aa8:	e51b3010 	ldr	r3, [fp, #-16]
 c104aac:	e2833001 	add	r3, r3, #1
 c104ab0:	e50b3010 	str	r3, [fp, #-16]
    return URXH0;
}

void uart0_puts( char *s )
{
    while (*s != '\0'){
 c104ab4:	e51b3010 	ldr	r3, [fp, #-16]
 c104ab8:	e5d33000 	ldrb	r3, [r3]
 c104abc:	e3530000 	cmp	r3, #0
 c104ac0:	1afffff4 	bne	c104a98 <uart0_puts+0x18>
    	uart0_putchar(*s);
    	*++s;
    }
}
 c104ac4:	e24bd00c 	sub	sp, fp, #12
 c104ac8:	e89d6800 	ldm	sp, {fp, sp, lr}
 c104acc:	e12fff1e 	bx	lr

0c104ad0 <uart0_putint>:

void uart0_putint( int32 i )
{
 c104ad0:	e1a0c00d 	mov	ip, sp
 c104ad4:	e92dd800 	push	{fp, ip, lr, pc}
 c104ad8:	e24cb004 	sub	fp, ip, #4
 c104adc:	e24dd020 	sub	sp, sp, #32
 c104ae0:	e50b0028 	str	r0, [fp, #-40]	; 0xffffffd8
    char buf[16 + 1];
    char *p = buf + 16;
 c104ae4:	e24b3024 	sub	r3, fp, #36	; 0x24
 c104ae8:	e2833010 	add	r3, r3, #16
 c104aec:	e50b3010 	str	r3, [fp, #-16]
    uint8 c;
    boolean negativo = FALSE;
 c104af0:	e3a03000 	mov	r3, #0
 c104af4:	e54b3011 	strb	r3, [fp, #-17]	; 0xffffffef

    *p = '\0';
 c104af8:	e51b3010 	ldr	r3, [fp, #-16]
 c104afc:	e3a02000 	mov	r2, #0
 c104b00:	e5c32000 	strb	r2, [r3]

    if (i < 0){
 c104b04:	e51b3028 	ldr	r3, [fp, #-40]	; 0xffffffd8
 c104b08:	e3530000 	cmp	r3, #0
 c104b0c:	aa000004 	bge	c104b24 <uart0_putint+0x54>
        negativo = TRUE;
 c104b10:	e3a03001 	mov	r3, #1
 c104b14:	e54b3011 	strb	r3, [fp, #-17]	; 0xffffffef
        i *= (-1);
 c104b18:	e51b3028 	ldr	r3, [fp, #-40]	; 0xffffffd8
 c104b1c:	e2633000 	rsb	r3, r3, #0
 c104b20:	e50b3028 	str	r3, [fp, #-40]	; 0xffffffd8
    }

    do {
        c = i % 10;
 c104b24:	e51b1028 	ldr	r1, [fp, #-40]	; 0xffffffd8
 c104b28:	e59f30a8 	ldr	r3, [pc, #168]	; c104bd8 <uart0_putint+0x108>
 c104b2c:	e0c32391 	smull	r2, r3, r1, r3
 c104b30:	e1a02143 	asr	r2, r3, #2
 c104b34:	e1a03fc1 	asr	r3, r1, #31
 c104b38:	e0632002 	rsb	r2, r3, r2
 c104b3c:	e1a03002 	mov	r3, r2
 c104b40:	e1a03103 	lsl	r3, r3, #2
 c104b44:	e0833002 	add	r3, r3, r2
 c104b48:	e1a03083 	lsl	r3, r3, #1
 c104b4c:	e0632001 	rsb	r2, r3, r1
 c104b50:	e1a03002 	mov	r3, r2
 c104b54:	e54b3012 	strb	r3, [fp, #-18]	; 0xffffffee
        *--p = '0' + c;
 c104b58:	e51b3010 	ldr	r3, [fp, #-16]
 c104b5c:	e2433001 	sub	r3, r3, #1
 c104b60:	e50b3010 	str	r3, [fp, #-16]
 c104b64:	e55b3012 	ldrb	r3, [fp, #-18]	; 0xffffffee
 c104b68:	e2833030 	add	r3, r3, #48	; 0x30
 c104b6c:	e20320ff 	and	r2, r3, #255	; 0xff
 c104b70:	e51b3010 	ldr	r3, [fp, #-16]
 c104b74:	e5c32000 	strb	r2, [r3]
        i /= 10;
 c104b78:	e51b3028 	ldr	r3, [fp, #-40]	; 0xffffffd8
 c104b7c:	e59f2054 	ldr	r2, [pc, #84]	; c104bd8 <uart0_putint+0x108>
 c104b80:	e0c21293 	smull	r1, r2, r3, r2
 c104b84:	e1a02142 	asr	r2, r2, #2
 c104b88:	e1a03fc3 	asr	r3, r3, #31
 c104b8c:	e0633002 	rsb	r3, r3, r2
 c104b90:	e50b3028 	str	r3, [fp, #-40]	; 0xffffffd8
    } while( i );
 c104b94:	e51b3028 	ldr	r3, [fp, #-40]	; 0xffffffd8
 c104b98:	e3530000 	cmp	r3, #0
 c104b9c:	1affffe0 	bne	c104b24 <uart0_putint+0x54>

    if (negativo){ *--p = '-';}
 c104ba0:	e55b3011 	ldrb	r3, [fp, #-17]	; 0xffffffef
 c104ba4:	e3530000 	cmp	r3, #0
 c104ba8:	0a000005 	beq	c104bc4 <uart0_putint+0xf4>
 c104bac:	e51b3010 	ldr	r3, [fp, #-16]
 c104bb0:	e2433001 	sub	r3, r3, #1
 c104bb4:	e50b3010 	str	r3, [fp, #-16]
 c104bb8:	e51b3010 	ldr	r3, [fp, #-16]
 c104bbc:	e3a0202d 	mov	r2, #45	; 0x2d
 c104bc0:	e5c32000 	strb	r2, [r3]

    uart0_puts( p );
 c104bc4:	e51b0010 	ldr	r0, [fp, #-16]
 c104bc8:	ebffffac 	bl	c104a80 <uart0_puts>
}
 c104bcc:	e24bd00c 	sub	sp, fp, #12
 c104bd0:	e89d6800 	ldm	sp, {fp, sp, lr}
 c104bd4:	e12fff1e 	bx	lr
 c104bd8:	66666667 	.word	0x66666667

0c104bdc <uart0_puthex>:

void uart0_puthex( uint32 i )
{
 c104bdc:	e1a0c00d 	mov	ip, sp
 c104be0:	e92dd800 	push	{fp, ip, lr, pc}
 c104be4:	e24cb004 	sub	fp, ip, #4
 c104be8:	e24dd018 	sub	sp, sp, #24
 c104bec:	e50b0020 	str	r0, [fp, #-32]	; 0xffffffe0
    char buf[8 + 1];
    char *p = buf + 8;
 c104bf0:	e24b301c 	sub	r3, fp, #28
 c104bf4:	e2833008 	add	r3, r3, #8
 c104bf8:	e50b3010 	str	r3, [fp, #-16]
    uint8 c;

    *p = '\0';
 c104bfc:	e51b3010 	ldr	r3, [fp, #-16]
 c104c00:	e3a02000 	mov	r2, #0
 c104c04:	e5c32000 	strb	r2, [r3]

    do {
        c = i & 0xf;
 c104c08:	e51b3020 	ldr	r3, [fp, #-32]	; 0xffffffe0
 c104c0c:	e20330ff 	and	r3, r3, #255	; 0xff
 c104c10:	e203300f 	and	r3, r3, #15
 c104c14:	e54b3011 	strb	r3, [fp, #-17]	; 0xffffffef
        if( c < 10 )
 c104c18:	e55b3011 	ldrb	r3, [fp, #-17]	; 0xffffffef
 c104c1c:	e3530009 	cmp	r3, #9
 c104c20:	8a000008 	bhi	c104c48 <uart0_puthex+0x6c>
            *--p = '0' + c;
 c104c24:	e51b3010 	ldr	r3, [fp, #-16]
 c104c28:	e2433001 	sub	r3, r3, #1
 c104c2c:	e50b3010 	str	r3, [fp, #-16]
 c104c30:	e55b3011 	ldrb	r3, [fp, #-17]	; 0xffffffef
 c104c34:	e2833030 	add	r3, r3, #48	; 0x30
 c104c38:	e20320ff 	and	r2, r3, #255	; 0xff
 c104c3c:	e51b3010 	ldr	r3, [fp, #-16]
 c104c40:	e5c32000 	strb	r2, [r3]
 c104c44:	ea000007 	b	c104c68 <uart0_puthex+0x8c>
        else
            *--p = 'a' + c - 10;
 c104c48:	e51b3010 	ldr	r3, [fp, #-16]
 c104c4c:	e2433001 	sub	r3, r3, #1
 c104c50:	e50b3010 	str	r3, [fp, #-16]
 c104c54:	e55b3011 	ldrb	r3, [fp, #-17]	; 0xffffffef
 c104c58:	e2833057 	add	r3, r3, #87	; 0x57
 c104c5c:	e20320ff 	and	r2, r3, #255	; 0xff
 c104c60:	e51b3010 	ldr	r3, [fp, #-16]
 c104c64:	e5c32000 	strb	r2, [r3]
        i = i >> 4;
 c104c68:	e51b3020 	ldr	r3, [fp, #-32]	; 0xffffffe0
 c104c6c:	e1a03223 	lsr	r3, r3, #4
 c104c70:	e50b3020 	str	r3, [fp, #-32]	; 0xffffffe0
    } while( i );
 c104c74:	e51b3020 	ldr	r3, [fp, #-32]	; 0xffffffe0
 c104c78:	e3530000 	cmp	r3, #0
 c104c7c:	1affffe1 	bne	c104c08 <uart0_puthex+0x2c>

    uart0_puts( p );
 c104c80:	e51b0010 	ldr	r0, [fp, #-16]
 c104c84:	ebffff7d 	bl	c104a80 <uart0_puts>
}
 c104c88:	e24bd00c 	sub	sp, fp, #12
 c104c8c:	e89d6800 	ldm	sp, {fp, sp, lr}
 c104c90:	e12fff1e 	bx	lr

0c104c94 <uart0_gets>:

void uart0_gets( char *s )
{
 c104c94:	e1a0c00d 	mov	ip, sp
 c104c98:	e92dd800 	push	{fp, ip, lr, pc}
 c104c9c:	e24cb004 	sub	fp, ip, #4
 c104ca0:	e24dd010 	sub	sp, sp, #16
 c104ca4:	e50b0018 	str	r0, [fp, #-24]	; 0xffffffe8
	char aux;
	aux = uart0_getchar();
 c104ca8:	ebffff62 	bl	c104a38 <uart0_getchar>
 c104cac:	e1a03000 	mov	r3, r0
 c104cb0:	e54b300d 	strb	r3, [fp, #-13]

    while (aux != '\n'){
 c104cb4:	ea000008 	b	c104cdc <uart0_gets+0x48>
    	*s = aux;
 c104cb8:	e51b3018 	ldr	r3, [fp, #-24]	; 0xffffffe8
 c104cbc:	e55b200d 	ldrb	r2, [fp, #-13]
 c104cc0:	e5c32000 	strb	r2, [r3]
    	*++s;
 c104cc4:	e51b3018 	ldr	r3, [fp, #-24]	; 0xffffffe8
 c104cc8:	e2833001 	add	r3, r3, #1
 c104ccc:	e50b3018 	str	r3, [fp, #-24]	; 0xffffffe8
    	aux = uart0_getchar();
 c104cd0:	ebffff58 	bl	c104a38 <uart0_getchar>
 c104cd4:	e1a03000 	mov	r3, r0
 c104cd8:	e54b300d 	strb	r3, [fp, #-13]
void uart0_gets( char *s )
{
	char aux;
	aux = uart0_getchar();

    while (aux != '\n'){
 c104cdc:	e55b300d 	ldrb	r3, [fp, #-13]
 c104ce0:	e353000a 	cmp	r3, #10
 c104ce4:	1afffff3 	bne	c104cb8 <uart0_gets+0x24>
    	*s = aux;
    	*++s;
    	aux = uart0_getchar();
    }
    *s  = '\0';
 c104ce8:	e51b3018 	ldr	r3, [fp, #-24]	; 0xffffffe8
 c104cec:	e3a02000 	mov	r2, #0
 c104cf0:	e5c32000 	strb	r2, [r3]
}
 c104cf4:	e24bd00c 	sub	sp, fp, #12
 c104cf8:	e89d6800 	ldm	sp, {fp, sp, lr}
 c104cfc:	e12fff1e 	bx	lr

0c104d00 <uart0_getint>:

int32 uart0_getint( void )
{
 c104d00:	e1a0c00d 	mov	ip, sp
 c104d04:	e92dd800 	push	{fp, ip, lr, pc}
 c104d08:	e24cb004 	sub	fp, ip, #4
 c104d0c:	e24dde11 	sub	sp, sp, #272	; 0x110
	int32 entero = 0;
 c104d10:	e3a03000 	mov	r3, #0
 c104d14:	e50b3010 	str	r3, [fp, #-16]
	char cadena[256], *p;
    uart0_gets(cadena);
 c104d18:	e24b3f46 	sub	r3, fp, #280	; 0x118
 c104d1c:	e1a00003 	mov	r0, r3
 c104d20:	ebffffdb 	bl	c104c94 <uart0_gets>
    boolean negativo = FALSE;
 c104d24:	e3a03000 	mov	r3, #0
 c104d28:	e54b3015 	strb	r3, [fp, #-21]	; 0xffffffeb

    p = cadena;
 c104d2c:	e24b3f46 	sub	r3, fp, #280	; 0x118
 c104d30:	e50b3014 	str	r3, [fp, #-20]	; 0xffffffec

    if (*p == '-'){
 c104d34:	e51b3014 	ldr	r3, [fp, #-20]	; 0xffffffec
 c104d38:	e5d33000 	ldrb	r3, [r3]
 c104d3c:	e353002d 	cmp	r3, #45	; 0x2d
 c104d40:	1a000013 	bne	c104d94 <uart0_getint+0x94>
    	negativo = TRUE;
 c104d44:	e3a03001 	mov	r3, #1
 c104d48:	e54b3015 	strb	r3, [fp, #-21]	; 0xffffffeb
    	++p;
 c104d4c:	e51b3014 	ldr	r3, [fp, #-20]	; 0xffffffec
 c104d50:	e2833001 	add	r3, r3, #1
 c104d54:	e50b3014 	str	r3, [fp, #-20]	; 0xffffffec
    }

    while (*p != '\0'){
 c104d58:	ea00000e 	b	c104d98 <uart0_getint+0x98>
    	entero = *p++ - '0' + entero * 10;
 c104d5c:	e51b3014 	ldr	r3, [fp, #-20]	; 0xffffffec
 c104d60:	e5d33000 	ldrb	r3, [r3]
 c104d64:	e2431030 	sub	r1, r3, #48	; 0x30
 c104d68:	e51b2010 	ldr	r2, [fp, #-16]
 c104d6c:	e1a03002 	mov	r3, r2
 c104d70:	e1a03103 	lsl	r3, r3, #2
 c104d74:	e0833002 	add	r3, r3, r2
 c104d78:	e1a03083 	lsl	r3, r3, #1
 c104d7c:	e0813003 	add	r3, r1, r3
 c104d80:	e50b3010 	str	r3, [fp, #-16]
 c104d84:	e51b3014 	ldr	r3, [fp, #-20]	; 0xffffffec
 c104d88:	e2833001 	add	r3, r3, #1
 c104d8c:	e50b3014 	str	r3, [fp, #-20]	; 0xffffffec
 c104d90:	ea000000 	b	c104d98 <uart0_getint+0x98>
    if (*p == '-'){
    	negativo = TRUE;
    	++p;
    }

    while (*p != '\0'){
 c104d94:	e1a00000 	nop			; (mov r0, r0)
 c104d98:	e51b3014 	ldr	r3, [fp, #-20]	; 0xffffffec
 c104d9c:	e5d33000 	ldrb	r3, [r3]
 c104da0:	e3530000 	cmp	r3, #0
 c104da4:	1affffec 	bne	c104d5c <uart0_getint+0x5c>
    	entero = *p++ - '0' + entero * 10;
    }

    if (negativo){entero *= (-1);}
 c104da8:	e55b3015 	ldrb	r3, [fp, #-21]	; 0xffffffeb
 c104dac:	e3530000 	cmp	r3, #0
 c104db0:	0a000002 	beq	c104dc0 <uart0_getint+0xc0>
 c104db4:	e51b3010 	ldr	r3, [fp, #-16]
 c104db8:	e2633000 	rsb	r3, r3, #0
 c104dbc:	e50b3010 	str	r3, [fp, #-16]

    return entero;
 c104dc0:	e51b3010 	ldr	r3, [fp, #-16]
}
 c104dc4:	e1a00003 	mov	r0, r3
 c104dc8:	e24bd00c 	sub	sp, fp, #12
 c104dcc:	e89d6800 	ldm	sp, {fp, sp, lr}
 c104dd0:	e12fff1e 	bx	lr

0c104dd4 <uart0_gethex>:

uint32 uart0_gethex( void )
{
 c104dd4:	e1a0c00d 	mov	ip, sp
 c104dd8:	e92dd800 	push	{fp, ip, lr, pc}
 c104ddc:	e24cb004 	sub	fp, ip, #4
 c104de0:	e24ddf42 	sub	sp, sp, #264	; 0x108
	uint32 entero = 0;
 c104de4:	e3a03000 	mov	r3, #0
 c104de8:	e50b3010 	str	r3, [fp, #-16]
	char cadena[256], *p;
    uart0_gets(cadena);
 c104dec:	e24b3f45 	sub	r3, fp, #276	; 0x114
 c104df0:	e1a00003 	mov	r0, r3
 c104df4:	ebffffa6 	bl	c104c94 <uart0_gets>

    p = cadena;
 c104df8:	e24b3f45 	sub	r3, fp, #276	; 0x114
 c104dfc:	e50b3014 	str	r3, [fp, #-20]	; 0xffffffec

    while (*p != '\0'){
 c104e00:	ea00003a 	b	c104ef0 <uart0_gethex+0x11c>
    	if (*p >= '0' && *p <= '9'){
 c104e04:	e51b3014 	ldr	r3, [fp, #-20]	; 0xffffffec
 c104e08:	e5d33000 	ldrb	r3, [r3]
 c104e0c:	e353002f 	cmp	r3, #47	; 0x2f
 c104e10:	9a00000f 	bls	c104e54 <uart0_gethex+0x80>
 c104e14:	e51b3014 	ldr	r3, [fp, #-20]	; 0xffffffec
 c104e18:	e5d33000 	ldrb	r3, [r3]
 c104e1c:	e3530039 	cmp	r3, #57	; 0x39
 c104e20:	8a00000b 	bhi	c104e54 <uart0_gethex+0x80>
    		entero = *p++ - '0' + entero * 16;
 c104e24:	e51b3014 	ldr	r3, [fp, #-20]	; 0xffffffec
 c104e28:	e5d33000 	ldrb	r3, [r3]
 c104e2c:	e1a02003 	mov	r2, r3
 c104e30:	e51b3010 	ldr	r3, [fp, #-16]
 c104e34:	e1a03203 	lsl	r3, r3, #4
 c104e38:	e0823003 	add	r3, r2, r3
 c104e3c:	e2433030 	sub	r3, r3, #48	; 0x30
 c104e40:	e50b3010 	str	r3, [fp, #-16]
 c104e44:	e51b3014 	ldr	r3, [fp, #-20]	; 0xffffffec
 c104e48:	e2833001 	add	r3, r3, #1
 c104e4c:	e50b3014 	str	r3, [fp, #-20]	; 0xffffffec
 c104e50:	ea000026 	b	c104ef0 <uart0_gethex+0x11c>
    	}
    	else if (*p >= 'A' && *p <= 'F'){
 c104e54:	e51b3014 	ldr	r3, [fp, #-20]	; 0xffffffec
 c104e58:	e5d33000 	ldrb	r3, [r3]
 c104e5c:	e3530040 	cmp	r3, #64	; 0x40
 c104e60:	9a00000f 	bls	c104ea4 <uart0_gethex+0xd0>
 c104e64:	e51b3014 	ldr	r3, [fp, #-20]	; 0xffffffec
 c104e68:	e5d33000 	ldrb	r3, [r3]
 c104e6c:	e3530046 	cmp	r3, #70	; 0x46
 c104e70:	8a00000b 	bhi	c104ea4 <uart0_gethex+0xd0>
    		entero = *p++ - 'A' + entero * 16 + 10;
 c104e74:	e51b3014 	ldr	r3, [fp, #-20]	; 0xffffffec
 c104e78:	e5d33000 	ldrb	r3, [r3]
 c104e7c:	e1a02003 	mov	r2, r3
 c104e80:	e51b3010 	ldr	r3, [fp, #-16]
 c104e84:	e1a03203 	lsl	r3, r3, #4
 c104e88:	e0823003 	add	r3, r2, r3
 c104e8c:	e2433037 	sub	r3, r3, #55	; 0x37
 c104e90:	e50b3010 	str	r3, [fp, #-16]
 c104e94:	e51b3014 	ldr	r3, [fp, #-20]	; 0xffffffec
 c104e98:	e2833001 	add	r3, r3, #1
 c104e9c:	e50b3014 	str	r3, [fp, #-20]	; 0xffffffec
 c104ea0:	ea000012 	b	c104ef0 <uart0_gethex+0x11c>
    	}
    	else if (*p >= 'a' && *p <= 'f'){
 c104ea4:	e51b3014 	ldr	r3, [fp, #-20]	; 0xffffffec
 c104ea8:	e5d33000 	ldrb	r3, [r3]
 c104eac:	e3530060 	cmp	r3, #96	; 0x60
 c104eb0:	9a00000e 	bls	c104ef0 <uart0_gethex+0x11c>
 c104eb4:	e51b3014 	ldr	r3, [fp, #-20]	; 0xffffffec
 c104eb8:	e5d33000 	ldrb	r3, [r3]
 c104ebc:	e3530066 	cmp	r3, #102	; 0x66
 c104ec0:	8a00000a 	bhi	c104ef0 <uart0_gethex+0x11c>
    		entero = *p++ - 'a' + entero * 16 + 10;
 c104ec4:	e51b3014 	ldr	r3, [fp, #-20]	; 0xffffffec
 c104ec8:	e5d33000 	ldrb	r3, [r3]
 c104ecc:	e1a02003 	mov	r2, r3
 c104ed0:	e51b3010 	ldr	r3, [fp, #-16]
 c104ed4:	e1a03203 	lsl	r3, r3, #4
 c104ed8:	e0823003 	add	r3, r2, r3
 c104edc:	e2433057 	sub	r3, r3, #87	; 0x57
 c104ee0:	e50b3010 	str	r3, [fp, #-16]
 c104ee4:	e51b3014 	ldr	r3, [fp, #-20]	; 0xffffffec
 c104ee8:	e2833001 	add	r3, r3, #1
 c104eec:	e50b3014 	str	r3, [fp, #-20]	; 0xffffffec
	char cadena[256], *p;
    uart0_gets(cadena);

    p = cadena;

    while (*p != '\0'){
 c104ef0:	e51b3014 	ldr	r3, [fp, #-20]	; 0xffffffec
 c104ef4:	e5d33000 	ldrb	r3, [r3]
 c104ef8:	e3530000 	cmp	r3, #0
 c104efc:	1affffc0 	bne	c104e04 <uart0_gethex+0x30>
    	else if (*p >= 'a' && *p <= 'f'){
    		entero = *p++ - 'a' + entero * 16 + 10;
    	}
    }

    return entero;
 c104f00:	e51b3010 	ldr	r3, [fp, #-16]
}
 c104f04:	e1a00003 	mov	r0, r3
 c104f08:	e24bd00c 	sub	sp, fp, #12
 c104f0c:	e89d6800 	ldm	sp, {fp, sp, lr}
 c104f10:	e12fff1e 	bx	lr

0c104f14 <__aeabi_uidiv>:
 c104f14:	e2512001 	subs	r2, r1, #1
 c104f18:	012fff1e 	bxeq	lr
 c104f1c:	3a000036 	bcc	c104ffc <__aeabi_uidiv+0xe8>
 c104f20:	e1500001 	cmp	r0, r1
 c104f24:	9a000022 	bls	c104fb4 <__aeabi_uidiv+0xa0>
 c104f28:	e1110002 	tst	r1, r2
 c104f2c:	0a000023 	beq	c104fc0 <__aeabi_uidiv+0xac>
 c104f30:	e311020e 	tst	r1, #-536870912	; 0xe0000000
 c104f34:	01a01181 	lsleq	r1, r1, #3
 c104f38:	03a03008 	moveq	r3, #8
 c104f3c:	13a03001 	movne	r3, #1
 c104f40:	e3510201 	cmp	r1, #268435456	; 0x10000000
 c104f44:	31510000 	cmpcc	r1, r0
 c104f48:	31a01201 	lslcc	r1, r1, #4
 c104f4c:	31a03203 	lslcc	r3, r3, #4
 c104f50:	3afffffa 	bcc	c104f40 <__aeabi_uidiv+0x2c>
 c104f54:	e3510102 	cmp	r1, #-2147483648	; 0x80000000
 c104f58:	31510000 	cmpcc	r1, r0
 c104f5c:	31a01081 	lslcc	r1, r1, #1
 c104f60:	31a03083 	lslcc	r3, r3, #1
 c104f64:	3afffffa 	bcc	c104f54 <__aeabi_uidiv+0x40>
 c104f68:	e3a02000 	mov	r2, #0
 c104f6c:	e1500001 	cmp	r0, r1
 c104f70:	20400001 	subcs	r0, r0, r1
 c104f74:	21822003 	orrcs	r2, r2, r3
 c104f78:	e15000a1 	cmp	r0, r1, lsr #1
 c104f7c:	204000a1 	subcs	r0, r0, r1, lsr #1
 c104f80:	218220a3 	orrcs	r2, r2, r3, lsr #1
 c104f84:	e1500121 	cmp	r0, r1, lsr #2
 c104f88:	20400121 	subcs	r0, r0, r1, lsr #2
 c104f8c:	21822123 	orrcs	r2, r2, r3, lsr #2
 c104f90:	e15001a1 	cmp	r0, r1, lsr #3
 c104f94:	204001a1 	subcs	r0, r0, r1, lsr #3
 c104f98:	218221a3 	orrcs	r2, r2, r3, lsr #3
 c104f9c:	e3500000 	cmp	r0, #0
 c104fa0:	11b03223 	lsrsne	r3, r3, #4
 c104fa4:	11a01221 	lsrne	r1, r1, #4
 c104fa8:	1affffef 	bne	c104f6c <__aeabi_uidiv+0x58>
 c104fac:	e1a00002 	mov	r0, r2
 c104fb0:	e12fff1e 	bx	lr
 c104fb4:	03a00001 	moveq	r0, #1
 c104fb8:	13a00000 	movne	r0, #0
 c104fbc:	e12fff1e 	bx	lr
 c104fc0:	e3510801 	cmp	r1, #65536	; 0x10000
 c104fc4:	21a01821 	lsrcs	r1, r1, #16
 c104fc8:	23a02010 	movcs	r2, #16
 c104fcc:	33a02000 	movcc	r2, #0
 c104fd0:	e3510c01 	cmp	r1, #256	; 0x100
 c104fd4:	21a01421 	lsrcs	r1, r1, #8
 c104fd8:	22822008 	addcs	r2, r2, #8
 c104fdc:	e3510010 	cmp	r1, #16
 c104fe0:	21a01221 	lsrcs	r1, r1, #4
 c104fe4:	22822004 	addcs	r2, r2, #4
 c104fe8:	e3510004 	cmp	r1, #4
 c104fec:	82822003 	addhi	r2, r2, #3
 c104ff0:	908220a1 	addls	r2, r2, r1, lsr #1
 c104ff4:	e1a00230 	lsr	r0, r0, r2
 c104ff8:	e12fff1e 	bx	lr
 c104ffc:	e3500000 	cmp	r0, #0
 c105000:	13e00000 	mvnne	r0, #0
 c105004:	ea000007 	b	c105028 <__aeabi_idiv0>

0c105008 <__aeabi_uidivmod>:
 c105008:	e3510000 	cmp	r1, #0
 c10500c:	0afffffa 	beq	c104ffc <__aeabi_uidiv+0xe8>
 c105010:	e92d4003 	push	{r0, r1, lr}
 c105014:	ebffffbe 	bl	c104f14 <__aeabi_uidiv>
 c105018:	e8bd4006 	pop	{r1, r2, lr}
 c10501c:	e0030092 	mul	r3, r2, r0
 c105020:	e0411003 	sub	r1, r1, r3
 c105024:	e12fff1e 	bx	lr

0c105028 <__aeabi_idiv0>:
 c105028:	e12fff1e 	bx	lr

0c10502c <__aeabi_uldivmod>:
 c10502c:	e3530000 	cmp	r3, #0
 c105030:	03520000 	cmpeq	r2, #0
 c105034:	1a000004 	bne	c10504c <__aeabi_uldivmod+0x20>
 c105038:	e3510000 	cmp	r1, #0
 c10503c:	03500000 	cmpeq	r0, #0
 c105040:	13e01000 	mvnne	r1, #0
 c105044:	13e00000 	mvnne	r0, #0
 c105048:	eafffff6 	b	c105028 <__aeabi_idiv0>
 c10504c:	e24dd008 	sub	sp, sp, #8
 c105050:	e92d6000 	push	{sp, lr}
 c105054:	eb000013 	bl	c1050a8 <__gnu_uldivmod_helper>
 c105058:	e59de004 	ldr	lr, [sp, #4]
 c10505c:	e28dd008 	add	sp, sp, #8
 c105060:	e8bd000c 	pop	{r2, r3}
 c105064:	e12fff1e 	bx	lr

0c105068 <__gnu_ldivmod_helper>:
 c105068:	e92d40f8 	push	{r3, r4, r5, r6, r7, lr}
 c10506c:	e1a04002 	mov	r4, r2
 c105070:	e1a07003 	mov	r7, r3
 c105074:	e1a05000 	mov	r5, r0
 c105078:	e1a06001 	mov	r6, r1
 c10507c:	eb000019 	bl	c1050e8 <__divdi3>
 c105080:	e0070790 	mul	r7, r0, r7
 c105084:	e0832490 	umull	r2, r3, r0, r4
 c105088:	e0247491 	mla	r4, r1, r4, r7
 c10508c:	e0843003 	add	r3, r4, r3
 c105090:	e0555002 	subs	r5, r5, r2
 c105094:	e0c66003 	sbc	r6, r6, r3
 c105098:	e59d3018 	ldr	r3, [sp, #24]
 c10509c:	e8830060 	stm	r3, {r5, r6}
 c1050a0:	e8bd40f8 	pop	{r3, r4, r5, r6, r7, lr}
 c1050a4:	e12fff1e 	bx	lr

0c1050a8 <__gnu_uldivmod_helper>:
 c1050a8:	e92d40f8 	push	{r3, r4, r5, r6, r7, lr}
 c1050ac:	e1a04002 	mov	r4, r2
 c1050b0:	e1a07003 	mov	r7, r3
 c1050b4:	e1a05000 	mov	r5, r0
 c1050b8:	e1a06001 	mov	r6, r1
 c1050bc:	eb000133 	bl	c105590 <__udivdi3>
 c1050c0:	e0070790 	mul	r7, r0, r7
 c1050c4:	e0832490 	umull	r2, r3, r0, r4
 c1050c8:	e0247491 	mla	r4, r1, r4, r7
 c1050cc:	e0843003 	add	r3, r4, r3
 c1050d0:	e0555002 	subs	r5, r5, r2
 c1050d4:	e0c66003 	sbc	r6, r6, r3
 c1050d8:	e59d3018 	ldr	r3, [sp, #24]
 c1050dc:	e8830060 	stm	r3, {r5, r6}
 c1050e0:	e8bd40f8 	pop	{r3, r4, r5, r6, r7, lr}
 c1050e4:	e12fff1e 	bx	lr

0c1050e8 <__divdi3>:
 c1050e8:	e92d4ff0 	push	{r4, r5, r6, r7, r8, r9, sl, fp, lr}
 c1050ec:	e3510000 	cmp	r1, #0
 c1050f0:	e24dd014 	sub	sp, sp, #20
 c1050f4:	e1a0c003 	mov	ip, r3
 c1050f8:	a3a07000 	movge	r7, #0
 c1050fc:	ba000094 	blt	c105354 <__divdi3+0x26c>
 c105100:	e35c0000 	cmp	ip, #0
 c105104:	ba00008e 	blt	c105344 <__divdi3+0x25c>
 c105108:	e253a000 	subs	sl, r3, #0
 c10510c:	e1a0b000 	mov	fp, r0
 c105110:	e1a08001 	mov	r8, r1
 c105114:	e1a09002 	mov	r9, r2
 c105118:	e1a04002 	mov	r4, r2
 c10511c:	e1a05000 	mov	r5, r0
 c105120:	e1a06001 	mov	r6, r1
 c105124:	1a00003e 	bne	c105224 <__divdi3+0x13c>
 c105128:	e1520001 	cmp	r2, r1
 c10512c:	9a00004c 	bls	c105264 <__divdi3+0x17c>
 c105130:	e1a00002 	mov	r0, r2
 c105134:	eb000222 	bl	c1059c4 <__clzsi2>
 c105138:	e3500000 	cmp	r0, #0
 c10513c:	12603020 	rsbne	r3, r0, #32
 c105140:	11a0333b 	lsrne	r3, fp, r3
 c105144:	11a04019 	lslne	r4, r9, r0
 c105148:	11836018 	orrne	r6, r3, r8, lsl r0
 c10514c:	e1a09824 	lsr	r9, r4, #16
 c105150:	11a0501b 	lslne	r5, fp, r0
 c105154:	e1a01009 	mov	r1, r9
 c105158:	e1a00006 	mov	r0, r6
 c10515c:	ebffff6c 	bl	c104f14 <__aeabi_uidiv>
 c105160:	e1a01009 	mov	r1, r9
 c105164:	e1a0a000 	mov	sl, r0
 c105168:	e1a00006 	mov	r0, r6
 c10516c:	ebffffa5 	bl	c105008 <__aeabi_uidivmod>
 c105170:	e1a08804 	lsl	r8, r4, #16
 c105174:	e1a08828 	lsr	r8, r8, #16
 c105178:	e0030a98 	mul	r3, r8, sl
 c10517c:	e1a0b825 	lsr	fp, r5, #16
 c105180:	e18bb801 	orr	fp, fp, r1, lsl #16
 c105184:	e153000b 	cmp	r3, fp
 c105188:	9a000005 	bls	c1051a4 <__divdi3+0xbc>
 c10518c:	e09bb004 	adds	fp, fp, r4
 c105190:	e24aa001 	sub	sl, sl, #1
 c105194:	2a000002 	bcs	c1051a4 <__divdi3+0xbc>
 c105198:	e153000b 	cmp	r3, fp
 c10519c:	824aa001 	subhi	sl, sl, #1
 c1051a0:	808bb004 	addhi	fp, fp, r4
 c1051a4:	e063b00b 	rsb	fp, r3, fp
 c1051a8:	e1a01009 	mov	r1, r9
 c1051ac:	e1a0000b 	mov	r0, fp
 c1051b0:	ebffff57 	bl	c104f14 <__aeabi_uidiv>
 c1051b4:	e1a01009 	mov	r1, r9
 c1051b8:	e1a06000 	mov	r6, r0
 c1051bc:	e1a0000b 	mov	r0, fp
 c1051c0:	ebffff90 	bl	c105008 <__aeabi_uidivmod>
 c1051c4:	e0080896 	mul	r8, r6, r8
 c1051c8:	e1a00805 	lsl	r0, r5, #16
 c1051cc:	e1a05820 	lsr	r5, r0, #16
 c1051d0:	e1855801 	orr	r5, r5, r1, lsl #16
 c1051d4:	e1580005 	cmp	r8, r5
 c1051d8:	9a000004 	bls	c1051f0 <__divdi3+0x108>
 c1051dc:	e0955004 	adds	r5, r5, r4
 c1051e0:	e2466001 	sub	r6, r6, #1
 c1051e4:	2a000001 	bcs	c1051f0 <__divdi3+0x108>
 c1051e8:	e1580005 	cmp	r8, r5
 c1051ec:	82466001 	subhi	r6, r6, #1
 c1051f0:	e186680a 	orr	r6, r6, sl, lsl #16
 c1051f4:	e3a09000 	mov	r9, #0
 c1051f8:	e3570000 	cmp	r7, #0
 c1051fc:	e1a03006 	mov	r3, r6
 c105200:	e1a04009 	mov	r4, r9
 c105204:	0a000001 	beq	c105210 <__divdi3+0x128>
 c105208:	e2733000 	rsbs	r3, r3, #0
 c10520c:	e2e44000 	rsc	r4, r4, #0
 c105210:	e1a00003 	mov	r0, r3
 c105214:	e1a01004 	mov	r1, r4
 c105218:	e28dd014 	add	sp, sp, #20
 c10521c:	e8bd4ff0 	pop	{r4, r5, r6, r7, r8, r9, sl, fp, lr}
 c105220:	e12fff1e 	bx	lr
 c105224:	e15a0001 	cmp	sl, r1
 c105228:	83a09000 	movhi	r9, #0
 c10522c:	81a06009 	movhi	r6, r9
 c105230:	8afffff0 	bhi	c1051f8 <__divdi3+0x110>
 c105234:	e1a00003 	mov	r0, r3
 c105238:	eb0001e1 	bl	c1059c4 <__clzsi2>
 c10523c:	e2504000 	subs	r4, r0, #0
 c105240:	1a00007a 	bne	c105430 <__divdi3+0x348>
 c105244:	e15a0008 	cmp	sl, r8
 c105248:	2159000b 	cmpcs	r9, fp
 c10524c:	83a09000 	movhi	r9, #0
 c105250:	93a09001 	movls	r9, #1
 c105254:	93a06001 	movls	r6, #1
 c105258:	91a09004 	movls	r9, r4
 c10525c:	81a06009 	movhi	r6, r9
 c105260:	eaffffe4 	b	c1051f8 <__divdi3+0x110>
 c105264:	e3520000 	cmp	r2, #0
 c105268:	1a000003 	bne	c10527c <__divdi3+0x194>
 c10526c:	e3a00001 	mov	r0, #1
 c105270:	e1a01002 	mov	r1, r2
 c105274:	ebffff26 	bl	c104f14 <__aeabi_uidiv>
 c105278:	e1a04000 	mov	r4, r0
 c10527c:	e1a00004 	mov	r0, r4
 c105280:	eb0001cf 	bl	c1059c4 <__clzsi2>
 c105284:	e2503000 	subs	r3, r0, #0
 c105288:	1a000035 	bne	c105364 <__divdi3+0x27c>
 c10528c:	e3a01001 	mov	r1, #1
 c105290:	e1a09804 	lsl	r9, r4, #16
 c105294:	e58d1008 	str	r1, [sp, #8]
 c105298:	e0646006 	rsb	r6, r4, r6
 c10529c:	e1a08824 	lsr	r8, r4, #16
 c1052a0:	e1a09829 	lsr	r9, r9, #16
 c1052a4:	e1a01008 	mov	r1, r8
 c1052a8:	e1a00006 	mov	r0, r6
 c1052ac:	ebffff18 	bl	c104f14 <__aeabi_uidiv>
 c1052b0:	e1a01008 	mov	r1, r8
 c1052b4:	e1a0a000 	mov	sl, r0
 c1052b8:	e1a00006 	mov	r0, r6
 c1052bc:	ebffff51 	bl	c105008 <__aeabi_uidivmod>
 c1052c0:	e0030a99 	mul	r3, r9, sl
 c1052c4:	e1a0c825 	lsr	ip, r5, #16
 c1052c8:	e18cb801 	orr	fp, ip, r1, lsl #16
 c1052cc:	e153000b 	cmp	r3, fp
 c1052d0:	9a000005 	bls	c1052ec <__divdi3+0x204>
 c1052d4:	e09bb004 	adds	fp, fp, r4
 c1052d8:	e24aa001 	sub	sl, sl, #1
 c1052dc:	2a000002 	bcs	c1052ec <__divdi3+0x204>
 c1052e0:	e153000b 	cmp	r3, fp
 c1052e4:	824aa001 	subhi	sl, sl, #1
 c1052e8:	808bb004 	addhi	fp, fp, r4
 c1052ec:	e063b00b 	rsb	fp, r3, fp
 c1052f0:	e1a01008 	mov	r1, r8
 c1052f4:	e1a0000b 	mov	r0, fp
 c1052f8:	ebffff05 	bl	c104f14 <__aeabi_uidiv>
 c1052fc:	e1a01008 	mov	r1, r8
 c105300:	e1a06000 	mov	r6, r0
 c105304:	e1a0000b 	mov	r0, fp
 c105308:	ebffff3e 	bl	c105008 <__aeabi_uidivmod>
 c10530c:	e0090996 	mul	r9, r6, r9
 c105310:	e1a00805 	lsl	r0, r5, #16
 c105314:	e1a05820 	lsr	r5, r0, #16
 c105318:	e1855801 	orr	r5, r5, r1, lsl #16
 c10531c:	e1590005 	cmp	r9, r5
 c105320:	9a000004 	bls	c105338 <__divdi3+0x250>
 c105324:	e0955004 	adds	r5, r5, r4
 c105328:	e2466001 	sub	r6, r6, #1
 c10532c:	2a000001 	bcs	c105338 <__divdi3+0x250>
 c105330:	e1590005 	cmp	r9, r5
 c105334:	82466001 	subhi	r6, r6, #1
 c105338:	e186680a 	orr	r6, r6, sl, lsl #16
 c10533c:	e59d9008 	ldr	r9, [sp, #8]
 c105340:	eaffffac 	b	c1051f8 <__divdi3+0x110>
 c105344:	e1e07007 	mvn	r7, r7
 c105348:	e2722000 	rsbs	r2, r2, #0
 c10534c:	e2e33000 	rsc	r3, r3, #0
 c105350:	eaffff6c 	b	c105108 <__divdi3+0x20>
 c105354:	e2700000 	rsbs	r0, r0, #0
 c105358:	e2e11000 	rsc	r1, r1, #0
 c10535c:	e3e07000 	mvn	r7, #0
 c105360:	eaffff66 	b	c105100 <__divdi3+0x18>
 c105364:	e2638020 	rsb	r8, r3, #32
 c105368:	e1a0b835 	lsr	fp, r5, r8
 c10536c:	e1a04314 	lsl	r4, r4, r3
 c105370:	e1a0a836 	lsr	sl, r6, r8
 c105374:	e18be316 	orr	lr, fp, r6, lsl r3
 c105378:	e1a08824 	lsr	r8, r4, #16
 c10537c:	e1a0c804 	lsl	ip, r4, #16
 c105380:	e1a01008 	mov	r1, r8
 c105384:	e1a0000a 	mov	r0, sl
 c105388:	e1a0982c 	lsr	r9, ip, #16
 c10538c:	e1a05315 	lsl	r5, r5, r3
 c105390:	e58de008 	str	lr, [sp, #8]
 c105394:	ebfffede 	bl	c104f14 <__aeabi_uidiv>
 c105398:	e1a01008 	mov	r1, r8
 c10539c:	e1a0b000 	mov	fp, r0
 c1053a0:	e1a0000a 	mov	r0, sl
 c1053a4:	ebffff17 	bl	c105008 <__aeabi_uidivmod>
 c1053a8:	e0030b99 	mul	r3, r9, fp
 c1053ac:	e59d2008 	ldr	r2, [sp, #8]
 c1053b0:	e1a06822 	lsr	r6, r2, #16
 c1053b4:	e1866801 	orr	r6, r6, r1, lsl #16
 c1053b8:	e1530006 	cmp	r3, r6
 c1053bc:	9a000002 	bls	c1053cc <__divdi3+0x2e4>
 c1053c0:	e0966004 	adds	r6, r6, r4
 c1053c4:	e24bb001 	sub	fp, fp, #1
 c1053c8:	3a00006c 	bcc	c105580 <__divdi3+0x498>
 c1053cc:	e0636006 	rsb	r6, r3, r6
 c1053d0:	e1a01008 	mov	r1, r8
 c1053d4:	e1a00006 	mov	r0, r6
 c1053d8:	ebfffecd 	bl	c104f14 <__aeabi_uidiv>
 c1053dc:	e1a01008 	mov	r1, r8
 c1053e0:	e1a0a000 	mov	sl, r0
 c1053e4:	e1a00006 	mov	r0, r6
 c1053e8:	ebffff06 	bl	c105008 <__aeabi_uidivmod>
 c1053ec:	e0030a99 	mul	r3, r9, sl
 c1053f0:	e59d2008 	ldr	r2, [sp, #8]
 c1053f4:	e1a06802 	lsl	r6, r2, #16
 c1053f8:	e1a00826 	lsr	r0, r6, #16
 c1053fc:	e1806801 	orr	r6, r0, r1, lsl #16
 c105400:	e1530006 	cmp	r3, r6
 c105404:	9a000005 	bls	c105420 <__divdi3+0x338>
 c105408:	e0966004 	adds	r6, r6, r4
 c10540c:	e24aa001 	sub	sl, sl, #1
 c105410:	2a000002 	bcs	c105420 <__divdi3+0x338>
 c105414:	e1530006 	cmp	r3, r6
 c105418:	824aa001 	subhi	sl, sl, #1
 c10541c:	80866004 	addhi	r6, r6, r4
 c105420:	e0636006 	rsb	r6, r3, r6
 c105424:	e18a380b 	orr	r3, sl, fp, lsl #16
 c105428:	e58d3008 	str	r3, [sp, #8]
 c10542c:	eaffff9c 	b	c1052a4 <__divdi3+0x1bc>
 c105430:	e2641020 	rsb	r1, r4, #32
 c105434:	e1a00139 	lsr	r0, r9, r1
 c105438:	e1a0213b 	lsr	r2, fp, r1
 c10543c:	e180a41a 	orr	sl, r0, sl, lsl r4
 c105440:	e1a06138 	lsr	r6, r8, r1
 c105444:	e1828418 	orr	r8, r2, r8, lsl r4
 c105448:	e1a0380a 	lsl	r3, sl, #16
 c10544c:	e1a0b82a 	lsr	fp, sl, #16
 c105450:	e1a0e823 	lsr	lr, r3, #16
 c105454:	e1a0100b 	mov	r1, fp
 c105458:	e1a00006 	mov	r0, r6
 c10545c:	e58d8008 	str	r8, [sp, #8]
 c105460:	e58de00c 	str	lr, [sp, #12]
 c105464:	ebfffeaa 	bl	c104f14 <__aeabi_uidiv>
 c105468:	e1a0100b 	mov	r1, fp
 c10546c:	e1a08000 	mov	r8, r0
 c105470:	e1a00006 	mov	r0, r6
 c105474:	ebfffee3 	bl	c105008 <__aeabi_uidivmod>
 c105478:	e59dc00c 	ldr	ip, [sp, #12]
 c10547c:	e002089c 	mul	r2, ip, r8
 c105480:	e59d3008 	ldr	r3, [sp, #8]
 c105484:	e1a06823 	lsr	r6, r3, #16
 c105488:	e1861801 	orr	r1, r6, r1, lsl #16
 c10548c:	e1520001 	cmp	r2, r1
 c105490:	e1a03419 	lsl	r3, r9, r4
 c105494:	9a000002 	bls	c1054a4 <__divdi3+0x3bc>
 c105498:	e091100a 	adds	r1, r1, sl
 c10549c:	e2488001 	sub	r8, r8, #1
 c1054a0:	3a000032 	bcc	c105570 <__divdi3+0x488>
 c1054a4:	e0629001 	rsb	r9, r2, r1
 c1054a8:	e1a00009 	mov	r0, r9
 c1054ac:	e1a0100b 	mov	r1, fp
 c1054b0:	e58d3004 	str	r3, [sp, #4]
 c1054b4:	ebfffe96 	bl	c104f14 <__aeabi_uidiv>
 c1054b8:	e1a0100b 	mov	r1, fp
 c1054bc:	e1a06000 	mov	r6, r0
 c1054c0:	e1a00009 	mov	r0, r9
 c1054c4:	ebfffecf 	bl	c105008 <__aeabi_uidivmod>
 c1054c8:	e59d000c 	ldr	r0, [sp, #12]
 c1054cc:	e0020690 	mul	r2, r0, r6
 c1054d0:	e59d3008 	ldr	r3, [sp, #8]
 c1054d4:	e1a0c803 	lsl	ip, r3, #16
 c1054d8:	e1a0982c 	lsr	r9, ip, #16
 c1054dc:	e1890801 	orr	r0, r9, r1, lsl #16
 c1054e0:	e1520000 	cmp	r2, r0
 c1054e4:	e59d3004 	ldr	r3, [sp, #4]
 c1054e8:	9a000002 	bls	c1054f8 <__divdi3+0x410>
 c1054ec:	e090000a 	adds	r0, r0, sl
 c1054f0:	e2466001 	sub	r6, r6, #1
 c1054f4:	3a000019 	bcc	c105560 <__divdi3+0x478>
 c1054f8:	e062e000 	rsb	lr, r2, r0
 c1054fc:	e1866808 	orr	r6, r6, r8, lsl #16
 c105500:	e1a02826 	lsr	r2, r6, #16
 c105504:	e1a01823 	lsr	r1, r3, #16
 c105508:	e1c6c802 	bic	ip, r6, r2, lsl #16
 c10550c:	e1c39801 	bic	r9, r3, r1, lsl #16
 c105510:	e003099c 	mul	r3, ip, r9
 c105514:	e0090992 	mul	r9, r2, r9
 c105518:	e00c0c91 	mul	ip, r1, ip
 c10551c:	e0010192 	mul	r1, r2, r1
 c105520:	e099c00c 	adds	ip, r9, ip
 c105524:	22811801 	addcs	r1, r1, #65536	; 0x10000
 c105528:	e093380c 	adds	r3, r3, ip, lsl #16
 c10552c:	e0a1182c 	adc	r1, r1, ip, lsr #16
 c105530:	e15e0001 	cmp	lr, r1
 c105534:	3a000006 	bcc	c105554 <__divdi3+0x46c>
 c105538:	13a02000 	movne	r2, #0
 c10553c:	03a02001 	moveq	r2, #1
 c105540:	e1530415 	cmp	r3, r5, lsl r4
 c105544:	93a09000 	movls	r9, #0
 c105548:	82029001 	andhi	r9, r2, #1
 c10554c:	e3590000 	cmp	r9, #0
 c105550:	0affff28 	beq	c1051f8 <__divdi3+0x110>
 c105554:	e2466001 	sub	r6, r6, #1
 c105558:	e3a09000 	mov	r9, #0
 c10555c:	eaffff25 	b	c1051f8 <__divdi3+0x110>
 c105560:	e1520000 	cmp	r2, r0
 c105564:	82466001 	subhi	r6, r6, #1
 c105568:	8080000a 	addhi	r0, r0, sl
 c10556c:	eaffffe1 	b	c1054f8 <__divdi3+0x410>
 c105570:	e1520001 	cmp	r2, r1
 c105574:	82488001 	subhi	r8, r8, #1
 c105578:	8081100a 	addhi	r1, r1, sl
 c10557c:	eaffffc8 	b	c1054a4 <__divdi3+0x3bc>
 c105580:	e1530006 	cmp	r3, r6
 c105584:	824bb001 	subhi	fp, fp, #1
 c105588:	80866004 	addhi	r6, r6, r4
 c10558c:	eaffff8e 	b	c1053cc <__divdi3+0x2e4>

0c105590 <__udivdi3>:
 c105590:	e92d4ff0 	push	{r4, r5, r6, r7, r8, r9, sl, fp, lr}
 c105594:	e2538000 	subs	r8, r3, #0
 c105598:	e24dd00c 	sub	sp, sp, #12
 c10559c:	e1a05000 	mov	r5, r0
 c1055a0:	e1a04001 	mov	r4, r1
 c1055a4:	e1a06002 	mov	r6, r2
 c1055a8:	e1a0a002 	mov	sl, r2
 c1055ac:	e1a0b000 	mov	fp, r0
 c1055b0:	e1a07001 	mov	r7, r1
 c1055b4:	1a000037 	bne	c105698 <__udivdi3+0x108>
 c1055b8:	e1520001 	cmp	r2, r1
 c1055bc:	9a000045 	bls	c1056d8 <__udivdi3+0x148>
 c1055c0:	e1a00002 	mov	r0, r2
 c1055c4:	eb0000fe 	bl	c1059c4 <__clzsi2>
 c1055c8:	e3500000 	cmp	r0, #0
 c1055cc:	12603020 	rsbne	r3, r0, #32
 c1055d0:	11a03335 	lsrne	r3, r5, r3
 c1055d4:	11a0a016 	lslne	sl, r6, r0
 c1055d8:	11837014 	orrne	r7, r3, r4, lsl r0
 c1055dc:	e1a0482a 	lsr	r4, sl, #16
 c1055e0:	11a0b015 	lslne	fp, r5, r0
 c1055e4:	e1a01004 	mov	r1, r4
 c1055e8:	e1a00007 	mov	r0, r7
 c1055ec:	ebfffe48 	bl	c104f14 <__aeabi_uidiv>
 c1055f0:	e1a01004 	mov	r1, r4
 c1055f4:	e1a08000 	mov	r8, r0
 c1055f8:	e1a00007 	mov	r0, r7
 c1055fc:	ebfffe81 	bl	c105008 <__aeabi_uidivmod>
 c105600:	e1a0680a 	lsl	r6, sl, #16
 c105604:	e1a06826 	lsr	r6, r6, #16
 c105608:	e0030896 	mul	r3, r6, r8
 c10560c:	e1a0782b 	lsr	r7, fp, #16
 c105610:	e1877801 	orr	r7, r7, r1, lsl #16
 c105614:	e1530007 	cmp	r3, r7
 c105618:	9a000005 	bls	c105634 <__udivdi3+0xa4>
 c10561c:	e097700a 	adds	r7, r7, sl
 c105620:	e2488001 	sub	r8, r8, #1
 c105624:	2a000002 	bcs	c105634 <__udivdi3+0xa4>
 c105628:	e1530007 	cmp	r3, r7
 c10562c:	82488001 	subhi	r8, r8, #1
 c105630:	8087700a 	addhi	r7, r7, sl
 c105634:	e0637007 	rsb	r7, r3, r7
 c105638:	e1a01004 	mov	r1, r4
 c10563c:	e1a00007 	mov	r0, r7
 c105640:	ebfffe33 	bl	c104f14 <__aeabi_uidiv>
 c105644:	e1a01004 	mov	r1, r4
 c105648:	e1a05000 	mov	r5, r0
 c10564c:	e1a00007 	mov	r0, r7
 c105650:	ebfffe6c 	bl	c105008 <__aeabi_uidivmod>
 c105654:	e0060695 	mul	r6, r5, r6
 c105658:	e1a0080b 	lsl	r0, fp, #16
 c10565c:	e1a0b820 	lsr	fp, r0, #16
 c105660:	e18bb801 	orr	fp, fp, r1, lsl #16
 c105664:	e156000b 	cmp	r6, fp
 c105668:	9a000004 	bls	c105680 <__udivdi3+0xf0>
 c10566c:	e09bb00a 	adds	fp, fp, sl
 c105670:	e2455001 	sub	r5, r5, #1
 c105674:	2a000001 	bcs	c105680 <__udivdi3+0xf0>
 c105678:	e156000b 	cmp	r6, fp
 c10567c:	82455001 	subhi	r5, r5, #1
 c105680:	e1858808 	orr	r8, r5, r8, lsl #16
 c105684:	e3a01000 	mov	r1, #0
 c105688:	e1a00008 	mov	r0, r8
 c10568c:	e28dd00c 	add	sp, sp, #12
 c105690:	e8bd4ff0 	pop	{r4, r5, r6, r7, r8, r9, sl, fp, lr}
 c105694:	e12fff1e 	bx	lr
 c105698:	e1580001 	cmp	r8, r1
 c10569c:	83a01000 	movhi	r1, #0
 c1056a0:	81a08001 	movhi	r8, r1
 c1056a4:	8afffff7 	bhi	c105688 <__udivdi3+0xf8>
 c1056a8:	e1a00008 	mov	r0, r8
 c1056ac:	eb0000c4 	bl	c1059c4 <__clzsi2>
 c1056b0:	e2507000 	subs	r7, r0, #0
 c1056b4:	1a00003e 	bne	c1057b4 <__udivdi3+0x224>
 c1056b8:	e1580004 	cmp	r8, r4
 c1056bc:	21560005 	cmpcs	r6, r5
 c1056c0:	83a01000 	movhi	r1, #0
 c1056c4:	93a01001 	movls	r1, #1
 c1056c8:	93a08001 	movls	r8, #1
 c1056cc:	91a01007 	movls	r1, r7
 c1056d0:	81a08001 	movhi	r8, r1
 c1056d4:	eaffffeb 	b	c105688 <__udivdi3+0xf8>
 c1056d8:	e3520000 	cmp	r2, #0
 c1056dc:	1a000003 	bne	c1056f0 <__udivdi3+0x160>
 c1056e0:	e3a00001 	mov	r0, #1
 c1056e4:	e1a01002 	mov	r1, r2
 c1056e8:	ebfffe09 	bl	c104f14 <__aeabi_uidiv>
 c1056ec:	e1a0a000 	mov	sl, r0
 c1056f0:	e1a0000a 	mov	r0, sl
 c1056f4:	eb0000b2 	bl	c1059c4 <__clzsi2>
 c1056f8:	e2503000 	subs	r3, r0, #0
 c1056fc:	1a000075 	bne	c1058d8 <__udivdi3+0x348>
 c105700:	e1a0180a 	lsl	r1, sl, #16
 c105704:	e06a4004 	rsb	r4, sl, r4
 c105708:	e1a0982a 	lsr	r9, sl, #16
 c10570c:	e1a06821 	lsr	r6, r1, #16
 c105710:	e3a07001 	mov	r7, #1
 c105714:	e1a01009 	mov	r1, r9
 c105718:	e1a00004 	mov	r0, r4
 c10571c:	ebfffdfc 	bl	c104f14 <__aeabi_uidiv>
 c105720:	e1a01009 	mov	r1, r9
 c105724:	e1a05000 	mov	r5, r0
 c105728:	e1a00004 	mov	r0, r4
 c10572c:	ebfffe35 	bl	c105008 <__aeabi_uidivmod>
 c105730:	e0030596 	mul	r3, r6, r5
 c105734:	e1a0282b 	lsr	r2, fp, #16
 c105738:	e1824801 	orr	r4, r2, r1, lsl #16
 c10573c:	e1530004 	cmp	r3, r4
 c105740:	9a000005 	bls	c10575c <__udivdi3+0x1cc>
 c105744:	e094400a 	adds	r4, r4, sl
 c105748:	e2455001 	sub	r5, r5, #1
 c10574c:	2a000002 	bcs	c10575c <__udivdi3+0x1cc>
 c105750:	e1530004 	cmp	r3, r4
 c105754:	82455001 	subhi	r5, r5, #1
 c105758:	8084400a 	addhi	r4, r4, sl
 c10575c:	e0634004 	rsb	r4, r3, r4
 c105760:	e1a01009 	mov	r1, r9
 c105764:	e1a00004 	mov	r0, r4
 c105768:	ebfffde9 	bl	c104f14 <__aeabi_uidiv>
 c10576c:	e1a01009 	mov	r1, r9
 c105770:	e1a08000 	mov	r8, r0
 c105774:	e1a00004 	mov	r0, r4
 c105778:	ebfffe22 	bl	c105008 <__aeabi_uidivmod>
 c10577c:	e0060698 	mul	r6, r8, r6
 c105780:	e1a0b80b 	lsl	fp, fp, #16
 c105784:	e1a0382b 	lsr	r3, fp, #16
 c105788:	e183b801 	orr	fp, r3, r1, lsl #16
 c10578c:	e156000b 	cmp	r6, fp
 c105790:	9a000004 	bls	c1057a8 <__udivdi3+0x218>
 c105794:	e09bb00a 	adds	fp, fp, sl
 c105798:	e2488001 	sub	r8, r8, #1
 c10579c:	2a000001 	bcs	c1057a8 <__udivdi3+0x218>
 c1057a0:	e156000b 	cmp	r6, fp
 c1057a4:	82488001 	subhi	r8, r8, #1
 c1057a8:	e1888805 	orr	r8, r8, r5, lsl #16
 c1057ac:	e1a01007 	mov	r1, r7
 c1057b0:	eaffffb4 	b	c105688 <__udivdi3+0xf8>
 c1057b4:	e267a020 	rsb	sl, r7, #32
 c1057b8:	e1a01a36 	lsr	r1, r6, sl
 c1057bc:	e1a02a35 	lsr	r2, r5, sl
 c1057c0:	e1818718 	orr	r8, r1, r8, lsl r7
 c1057c4:	e1a0ba34 	lsr	fp, r4, sl
 c1057c8:	e1829714 	orr	r9, r2, r4, lsl r7
 c1057cc:	e1a0a828 	lsr	sl, r8, #16
 c1057d0:	e1a0e808 	lsl	lr, r8, #16
 c1057d4:	e1a0100a 	mov	r1, sl
 c1057d8:	e1a0000b 	mov	r0, fp
 c1057dc:	e1a0482e 	lsr	r4, lr, #16
 c1057e0:	e58d9004 	str	r9, [sp, #4]
 c1057e4:	ebfffdca 	bl	c104f14 <__aeabi_uidiv>
 c1057e8:	e1a0100a 	mov	r1, sl
 c1057ec:	e1a09000 	mov	r9, r0
 c1057f0:	e1a0000b 	mov	r0, fp
 c1057f4:	ebfffe03 	bl	c105008 <__aeabi_uidivmod>
 c1057f8:	e0020994 	mul	r2, r4, r9
 c1057fc:	e59d0004 	ldr	r0, [sp, #4]
 c105800:	e1a0c820 	lsr	ip, r0, #16
 c105804:	e18cb801 	orr	fp, ip, r1, lsl #16
 c105808:	e152000b 	cmp	r2, fp
 c10580c:	e1a03716 	lsl	r3, r6, r7
 c105810:	9a000002 	bls	c105820 <__udivdi3+0x290>
 c105814:	e09bb008 	adds	fp, fp, r8
 c105818:	e2499001 	sub	r9, r9, #1
 c10581c:	3a000060 	bcc	c1059a4 <__udivdi3+0x414>
 c105820:	e062b00b 	rsb	fp, r2, fp
 c105824:	e1a0100a 	mov	r1, sl
 c105828:	e1a0000b 	mov	r0, fp
 c10582c:	e58d3000 	str	r3, [sp]
 c105830:	ebfffdb7 	bl	c104f14 <__aeabi_uidiv>
 c105834:	e1a0100a 	mov	r1, sl
 c105838:	e1a06000 	mov	r6, r0
 c10583c:	e1a0000b 	mov	r0, fp
 c105840:	ebfffdf0 	bl	c105008 <__aeabi_uidivmod>
 c105844:	e0040496 	mul	r4, r6, r4
 c105848:	e59d0004 	ldr	r0, [sp, #4]
 c10584c:	e1a0c800 	lsl	ip, r0, #16
 c105850:	e1a0382c 	lsr	r3, ip, #16
 c105854:	e1832801 	orr	r2, r3, r1, lsl #16
 c105858:	e1540002 	cmp	r4, r2
 c10585c:	e59d3000 	ldr	r3, [sp]
 c105860:	9a000002 	bls	c105870 <__udivdi3+0x2e0>
 c105864:	e0922008 	adds	r2, r2, r8
 c105868:	e2466001 	sub	r6, r6, #1
 c10586c:	3a000048 	bcc	c105994 <__udivdi3+0x404>
 c105870:	e0644002 	rsb	r4, r4, r2
 c105874:	e1868809 	orr	r8, r6, r9, lsl #16
 c105878:	e1a02828 	lsr	r2, r8, #16
 c10587c:	e1a0e823 	lsr	lr, r3, #16
 c105880:	e1c80802 	bic	r0, r8, r2, lsl #16
 c105884:	e1c3680e 	bic	r6, r3, lr, lsl #16
 c105888:	e0030690 	mul	r3, r0, r6
 c10588c:	e0060692 	mul	r6, r2, r6
 c105890:	e000009e 	mul	r0, lr, r0
 c105894:	e00e0e92 	mul	lr, r2, lr
 c105898:	e0960000 	adds	r0, r6, r0
 c10589c:	228ee801 	addcs	lr, lr, #65536	; 0x10000
 c1058a0:	e0933800 	adds	r3, r3, r0, lsl #16
 c1058a4:	e0aee820 	adc	lr, lr, r0, lsr #16
 c1058a8:	e154000e 	cmp	r4, lr
 c1058ac:	3a000006 	bcc	c1058cc <__udivdi3+0x33c>
 c1058b0:	13a02000 	movne	r2, #0
 c1058b4:	03a02001 	moveq	r2, #1
 c1058b8:	e1530715 	cmp	r3, r5, lsl r7
 c1058bc:	93a01000 	movls	r1, #0
 c1058c0:	82021001 	andhi	r1, r2, #1
 c1058c4:	e3510000 	cmp	r1, #0
 c1058c8:	0affff6e 	beq	c105688 <__udivdi3+0xf8>
 c1058cc:	e2488001 	sub	r8, r8, #1
 c1058d0:	e3a01000 	mov	r1, #0
 c1058d4:	eaffff6b 	b	c105688 <__udivdi3+0xf8>
 c1058d8:	e2639020 	rsb	r9, r3, #32
 c1058dc:	e1a0a31a 	lsl	sl, sl, r3
 c1058e0:	e1a07934 	lsr	r7, r4, r9
 c1058e4:	e1a08935 	lsr	r8, r5, r9
 c1058e8:	e1a0982a 	lsr	r9, sl, #16
 c1058ec:	e1a0280a 	lsl	r2, sl, #16
 c1058f0:	e1a01009 	mov	r1, r9
 c1058f4:	e1a00007 	mov	r0, r7
 c1058f8:	e1888314 	orr	r8, r8, r4, lsl r3
 c1058fc:	e1a0b315 	lsl	fp, r5, r3
 c105900:	e1a06822 	lsr	r6, r2, #16
 c105904:	ebfffd82 	bl	c104f14 <__aeabi_uidiv>
 c105908:	e1a01009 	mov	r1, r9
 c10590c:	e1a05000 	mov	r5, r0
 c105910:	e1a00007 	mov	r0, r7
 c105914:	ebfffdbb 	bl	c105008 <__aeabi_uidivmod>
 c105918:	e0030596 	mul	r3, r6, r5
 c10591c:	e1a04828 	lsr	r4, r8, #16
 c105920:	e1844801 	orr	r4, r4, r1, lsl #16
 c105924:	e1530004 	cmp	r3, r4
 c105928:	9a000002 	bls	c105938 <__udivdi3+0x3a8>
 c10592c:	e094400a 	adds	r4, r4, sl
 c105930:	e2455001 	sub	r5, r5, #1
 c105934:	3a00001e 	bcc	c1059b4 <__udivdi3+0x424>
 c105938:	e0634004 	rsb	r4, r3, r4
 c10593c:	e1a01009 	mov	r1, r9
 c105940:	e1a00004 	mov	r0, r4
 c105944:	ebfffd72 	bl	c104f14 <__aeabi_uidiv>
 c105948:	e1a01009 	mov	r1, r9
 c10594c:	e1a07000 	mov	r7, r0
 c105950:	e1a00004 	mov	r0, r4
 c105954:	ebfffdab 	bl	c105008 <__aeabi_uidivmod>
 c105958:	e0030796 	mul	r3, r6, r7
 c10595c:	e1a00808 	lsl	r0, r8, #16
 c105960:	e1a0c820 	lsr	ip, r0, #16
 c105964:	e18c4801 	orr	r4, ip, r1, lsl #16
 c105968:	e1530004 	cmp	r3, r4
 c10596c:	9a000005 	bls	c105988 <__udivdi3+0x3f8>
 c105970:	e094400a 	adds	r4, r4, sl
 c105974:	e2477001 	sub	r7, r7, #1
 c105978:	2a000002 	bcs	c105988 <__udivdi3+0x3f8>
 c10597c:	e1530004 	cmp	r3, r4
 c105980:	82477001 	subhi	r7, r7, #1
 c105984:	8084400a 	addhi	r4, r4, sl
 c105988:	e0634004 	rsb	r4, r3, r4
 c10598c:	e1877805 	orr	r7, r7, r5, lsl #16
 c105990:	eaffff5f 	b	c105714 <__udivdi3+0x184>
 c105994:	e1540002 	cmp	r4, r2
 c105998:	82466001 	subhi	r6, r6, #1
 c10599c:	80822008 	addhi	r2, r2, r8
 c1059a0:	eaffffb2 	b	c105870 <__udivdi3+0x2e0>
 c1059a4:	e152000b 	cmp	r2, fp
 c1059a8:	82499001 	subhi	r9, r9, #1
 c1059ac:	808bb008 	addhi	fp, fp, r8
 c1059b0:	eaffff9a 	b	c105820 <__udivdi3+0x290>
 c1059b4:	e1530004 	cmp	r3, r4
 c1059b8:	82455001 	subhi	r5, r5, #1
 c1059bc:	8084400a 	addhi	r4, r4, sl
 c1059c0:	eaffffdc 	b	c105938 <__udivdi3+0x3a8>

0c1059c4 <__clzsi2>:
 c1059c4:	e3a0101c 	mov	r1, #28
 c1059c8:	e3500801 	cmp	r0, #65536	; 0x10000
 c1059cc:	21a00820 	lsrcs	r0, r0, #16
 c1059d0:	22411010 	subcs	r1, r1, #16
 c1059d4:	e3500c01 	cmp	r0, #256	; 0x100
 c1059d8:	21a00420 	lsrcs	r0, r0, #8
 c1059dc:	22411008 	subcs	r1, r1, #8
 c1059e0:	e3500010 	cmp	r0, #16
 c1059e4:	21a00220 	lsrcs	r0, r0, #4
 c1059e8:	22411004 	subcs	r1, r1, #4
 c1059ec:	e28f2008 	add	r2, pc, #8
 c1059f0:	e7d20000 	ldrb	r0, [r2, r0]
 c1059f4:	e0800001 	add	r0, r0, r1
 c1059f8:	e12fff1e 	bx	lr
 c1059fc:	02020304 	.word	0x02020304
 c105a00:	01010101 	.word	0x01010101
	...
