   1              		.cpu arm7tdmi
   2              		.fpu softvfp
   3              		.eabi_attribute 20, 1
   4              		.eabi_attribute 21, 1
   5              		.eabi_attribute 23, 3
   6              		.eabi_attribute 24, 1
   7              		.eabi_attribute 25, 1
   8              		.eabi_attribute 26, 1
   9              		.eabi_attribute 30, 6
  10              		.eabi_attribute 18, 4
  11              		.file	"keypad.c"
  21              	.Ltext0:
  22              		.file 1 "../src/keypad.c"
 1974              		.align	2
 1975              		.global	keypad_scan
 1977              	keypad_scan:
 1978              	.LFB0:
   1:../src/keypad.c **** #include <s3c44b0x.h>
   2:../src/keypad.c **** #include <s3cev40.h>
   3:../src/keypad.c **** #include <timers.h>
   4:../src/keypad.c **** #include <keypad.h>
   5:../src/keypad.c **** 
   6:../src/keypad.c **** extern void isr_KEYPAD_dummy( void );
   7:../src/keypad.c **** 
   8:../src/keypad.c **** uint8 keypad_scan( void )
   9:../src/keypad.c **** {
 1979              		.loc 1 9 0
 1980              		.cfi_startproc
 1981              		@ Function supports interworking.
 1982              		@ args = 0, pretend = 0, frame = 8
 1983              		@ frame_needed = 1, uses_anonymous_args = 0
 1984 0000 0DC0A0E1 		mov	ip, sp
 1985              	.LCFI0:
 1986              		.cfi_def_cfa_register 12
 1987 0004 00D82DE9 		stmfd	sp!, {fp, ip, lr, pc}
 1988 0008 04B04CE2 		sub	fp, ip, #4
 1989              		.cfi_offset 14, -8
 1990              		.cfi_offset 13, -12
 1991              		.cfi_offset 11, -16
 1992              	.LCFI1:
 1993              		.cfi_def_cfa 11, 4
 1994 000c 08D04DE2 		sub	sp, sp, #8
  10:../src/keypad.c ****     uint8 aux;
  11:../src/keypad.c **** 
  12:../src/keypad.c ****     aux = *( KEYPAD_ADDR + 0x1c );
 1995              		.loc 1 12 0
 1996 0010 FC319FE5 		ldr	r3, .L19
 1997 0014 0030D3E5 		ldrb	r3, [r3, #0]
 1998 0018 0D304BE5 		strb	r3, [fp, #-13]
  13:../src/keypad.c ****     if( (aux & 0x0f) != 0x0f )
 1999              		.loc 1 13 0
 2000 001c 0D305BE5 		ldrb	r3, [fp, #-13]	@ zero_extendqisi2
 2001 0020 0F3003E2 		and	r3, r3, #15
 2002 0024 0F0053E3 		cmp	r3, #15
 2003 0028 1700000A 		beq	.L2
  14:../src/keypad.c ****     {
  15:../src/keypad.c ****         if( (aux & 0x8) == 0 )
 2004              		.loc 1 15 0
 2005 002c 0D305BE5 		ldrb	r3, [fp, #-13]	@ zero_extendqisi2
 2006 0030 083003E2 		and	r3, r3, #8
 2007 0034 000053E3 		cmp	r3, #0
 2008 0038 0100001A 		bne	.L3
  16:../src/keypad.c ****             return KEYPAD_KEY0;
 2009              		.loc 1 16 0
 2010 003c 0030A0E3 		mov	r3, #0
 2011 0040 6F0000EA 		b	.L4
 2012              	.L3:
  17:../src/keypad.c ****         else if( (aux & 0x4) == 0 )
 2013              		.loc 1 17 0
 2014 0044 0D305BE5 		ldrb	r3, [fp, #-13]	@ zero_extendqisi2
 2015 0048 043003E2 		and	r3, r3, #4
 2016 004c 000053E3 		cmp	r3, #0
 2017 0050 0100001A 		bne	.L5
  18:../src/keypad.c ****             return KEYPAD_KEY1;
 2018              		.loc 1 18 0
 2019 0054 0130A0E3 		mov	r3, #1
 2020 0058 690000EA 		b	.L4
 2021              	.L5:
  19:../src/keypad.c ****         else if( (aux & 0x2) == 0 )
 2022              		.loc 1 19 0
 2023 005c 0D305BE5 		ldrb	r3, [fp, #-13]	@ zero_extendqisi2
 2024 0060 023003E2 		and	r3, r3, #2
 2025 0064 000053E3 		cmp	r3, #0
 2026 0068 0100001A 		bne	.L6
  20:../src/keypad.c ****             return KEYPAD_KEY2;
 2027              		.loc 1 20 0
 2028 006c 0230A0E3 		mov	r3, #2
 2029 0070 630000EA 		b	.L4
 2030              	.L6:
  21:../src/keypad.c ****         else if( (aux & 0x1) == 0 )
 2031              		.loc 1 21 0
 2032 0074 0D305BE5 		ldrb	r3, [fp, #-13]	@ zero_extendqisi2
 2033 0078 013003E2 		and	r3, r3, #1
 2034 007c 000053E3 		cmp	r3, #0
 2035 0080 0100001A 		bne	.L2
  22:../src/keypad.c ****             return KEYPAD_KEY3;
 2036              		.loc 1 22 0
 2037 0084 0330A0E3 		mov	r3, #3
 2038 0088 5D0000EA 		b	.L4
 2039              	.L2:
  23:../src/keypad.c ****     }
  24:../src/keypad.c **** 	aux = *( KEYPAD_ADDR + 0x1A);
 2040              		.loc 1 24 0
 2041 008c 84319FE5 		ldr	r3, .L19+4
 2042 0090 0030D3E5 		ldrb	r3, [r3, #0]
 2043 0094 0D304BE5 		strb	r3, [fp, #-13]
  25:../src/keypad.c **** 	if( (aux & 0x0f) != 0x0f )
 2044              		.loc 1 25 0
 2045 0098 0D305BE5 		ldrb	r3, [fp, #-13]	@ zero_extendqisi2
 2046 009c 0F3003E2 		and	r3, r3, #15
 2047 00a0 0F0053E3 		cmp	r3, #15
 2048 00a4 1700000A 		beq	.L7
  26:../src/keypad.c **** 	{
  27:../src/keypad.c **** 		if( (aux & 0x8) == 0 )
 2049              		.loc 1 27 0
 2050 00a8 0D305BE5 		ldrb	r3, [fp, #-13]	@ zero_extendqisi2
 2051 00ac 083003E2 		and	r3, r3, #8
 2052 00b0 000053E3 		cmp	r3, #0
 2053 00b4 0100001A 		bne	.L8
  28:../src/keypad.c **** 			return KEYPAD_KEY4;
 2054              		.loc 1 28 0
 2055 00b8 0430A0E3 		mov	r3, #4
 2056 00bc 500000EA 		b	.L4
 2057              	.L8:
  29:../src/keypad.c **** 		else if( (aux & 0x4) == 0 )
 2058              		.loc 1 29 0
 2059 00c0 0D305BE5 		ldrb	r3, [fp, #-13]	@ zero_extendqisi2
 2060 00c4 043003E2 		and	r3, r3, #4
 2061 00c8 000053E3 		cmp	r3, #0
 2062 00cc 0100001A 		bne	.L9
  30:../src/keypad.c **** 			return KEYPAD_KEY5;
 2063              		.loc 1 30 0
 2064 00d0 0530A0E3 		mov	r3, #5
 2065 00d4 4A0000EA 		b	.L4
 2066              	.L9:
  31:../src/keypad.c **** 		else if( (aux & 0x2) == 0 )
 2067              		.loc 1 31 0
 2068 00d8 0D305BE5 		ldrb	r3, [fp, #-13]	@ zero_extendqisi2
 2069 00dc 023003E2 		and	r3, r3, #2
 2070 00e0 000053E3 		cmp	r3, #0
 2071 00e4 0100001A 		bne	.L10
  32:../src/keypad.c **** 			return KEYPAD_KEY6;
 2072              		.loc 1 32 0
 2073 00e8 0630A0E3 		mov	r3, #6
 2074 00ec 440000EA 		b	.L4
 2075              	.L10:
  33:../src/keypad.c **** 		else if( (aux & 0x1) == 0 )
 2076              		.loc 1 33 0
 2077 00f0 0D305BE5 		ldrb	r3, [fp, #-13]	@ zero_extendqisi2
 2078 00f4 013003E2 		and	r3, r3, #1
 2079 00f8 000053E3 		cmp	r3, #0
 2080 00fc 0100001A 		bne	.L7
  34:../src/keypad.c **** 			return KEYPAD_KEY7;
 2081              		.loc 1 34 0
 2082 0100 0730A0E3 		mov	r3, #7
 2083 0104 3E0000EA 		b	.L4
 2084              	.L7:
  35:../src/keypad.c **** 	}
  36:../src/keypad.c **** 	aux = *( KEYPAD_ADDR + 0x16);
 2085              		.loc 1 36 0
 2086 0108 0C319FE5 		ldr	r3, .L19+8
 2087 010c 0030D3E5 		ldrb	r3, [r3, #0]
 2088 0110 0D304BE5 		strb	r3, [fp, #-13]
  37:../src/keypad.c **** 		if( (aux & 0x0f) != 0x0f )
 2089              		.loc 1 37 0
 2090 0114 0D305BE5 		ldrb	r3, [fp, #-13]	@ zero_extendqisi2
 2091 0118 0F3003E2 		and	r3, r3, #15
 2092 011c 0F0053E3 		cmp	r3, #15
 2093 0120 1700000A 		beq	.L11
  38:../src/keypad.c **** 		{
  39:../src/keypad.c **** 			if( (aux & 0x8) == 0 )
 2094              		.loc 1 39 0
 2095 0124 0D305BE5 		ldrb	r3, [fp, #-13]	@ zero_extendqisi2
 2096 0128 083003E2 		and	r3, r3, #8
 2097 012c 000053E3 		cmp	r3, #0
 2098 0130 0100001A 		bne	.L12
  40:../src/keypad.c **** 				return KEYPAD_KEY8;
 2099              		.loc 1 40 0
 2100 0134 0830A0E3 		mov	r3, #8
 2101 0138 310000EA 		b	.L4
 2102              	.L12:
  41:../src/keypad.c **** 			else if( (aux & 0x4) == 0 )
 2103              		.loc 1 41 0
 2104 013c 0D305BE5 		ldrb	r3, [fp, #-13]	@ zero_extendqisi2
 2105 0140 043003E2 		and	r3, r3, #4
 2106 0144 000053E3 		cmp	r3, #0
 2107 0148 0100001A 		bne	.L13
  42:../src/keypad.c **** 				return KEYPAD_KEY9;
 2108              		.loc 1 42 0
 2109 014c 0930A0E3 		mov	r3, #9
 2110 0150 2B0000EA 		b	.L4
 2111              	.L13:
  43:../src/keypad.c **** 			else if( (aux & 0x2) == 0 )
 2112              		.loc 1 43 0
 2113 0154 0D305BE5 		ldrb	r3, [fp, #-13]	@ zero_extendqisi2
 2114 0158 023003E2 		and	r3, r3, #2
 2115 015c 000053E3 		cmp	r3, #0
 2116 0160 0100001A 		bne	.L14
  44:../src/keypad.c **** 				return KEYPAD_KEYA;
 2117              		.loc 1 44 0
 2118 0164 0A30A0E3 		mov	r3, #10
 2119 0168 250000EA 		b	.L4
 2120              	.L14:
  45:../src/keypad.c **** 			else if( (aux & 0x1) == 0 )
 2121              		.loc 1 45 0
 2122 016c 0D305BE5 		ldrb	r3, [fp, #-13]	@ zero_extendqisi2
 2123 0170 013003E2 		and	r3, r3, #1
 2124 0174 000053E3 		cmp	r3, #0
 2125 0178 0100001A 		bne	.L11
  46:../src/keypad.c **** 				return KEYPAD_KEYB;
 2126              		.loc 1 46 0
 2127 017c 0B30A0E3 		mov	r3, #11
 2128 0180 1F0000EA 		b	.L4
 2129              	.L11:
  47:../src/keypad.c **** 		}
  48:../src/keypad.c **** 	aux = *( KEYPAD_ADDR + 0x0E);
 2130              		.loc 1 48 0
 2131 0184 94309FE5 		ldr	r3, .L19+12
 2132 0188 0030D3E5 		ldrb	r3, [r3, #0]
 2133 018c 0D304BE5 		strb	r3, [fp, #-13]
  49:../src/keypad.c **** 		if( (aux & 0x0f) != 0x0f )
 2134              		.loc 1 49 0
 2135 0190 0D305BE5 		ldrb	r3, [fp, #-13]	@ zero_extendqisi2
 2136 0194 0F3003E2 		and	r3, r3, #15
 2137 0198 0F0053E3 		cmp	r3, #15
 2138 019c 1700000A 		beq	.L15
  50:../src/keypad.c **** 		{
  51:../src/keypad.c **** 			if( (aux & 0x8) == 0 )
 2139              		.loc 1 51 0
 2140 01a0 0D305BE5 		ldrb	r3, [fp, #-13]	@ zero_extendqisi2
 2141 01a4 083003E2 		and	r3, r3, #8
 2142 01a8 000053E3 		cmp	r3, #0
 2143 01ac 0100001A 		bne	.L16
  52:../src/keypad.c **** 				return KEYPAD_KEYC;
 2144              		.loc 1 52 0
 2145 01b0 0C30A0E3 		mov	r3, #12
 2146 01b4 120000EA 		b	.L4
 2147              	.L16:
  53:../src/keypad.c **** 			else if( (aux & 0x4) == 0 )
 2148              		.loc 1 53 0
 2149 01b8 0D305BE5 		ldrb	r3, [fp, #-13]	@ zero_extendqisi2
 2150 01bc 043003E2 		and	r3, r3, #4
 2151 01c0 000053E3 		cmp	r3, #0
 2152 01c4 0100001A 		bne	.L17
  54:../src/keypad.c **** 				return KEYPAD_KEYD;
 2153              		.loc 1 54 0
 2154 01c8 0D30A0E3 		mov	r3, #13
 2155 01cc 0C0000EA 		b	.L4
 2156              	.L17:
  55:../src/keypad.c **** 			else if( (aux & 0x2) == 0 )
 2157              		.loc 1 55 0
 2158 01d0 0D305BE5 		ldrb	r3, [fp, #-13]	@ zero_extendqisi2
 2159 01d4 023003E2 		and	r3, r3, #2
 2160 01d8 000053E3 		cmp	r3, #0
 2161 01dc 0100001A 		bne	.L18
  56:../src/keypad.c **** 				return KEYPAD_KEYE;
 2162              		.loc 1 56 0
 2163 01e0 0E30A0E3 		mov	r3, #14
 2164 01e4 060000EA 		b	.L4
 2165              	.L18:
  57:../src/keypad.c **** 			else if( (aux & 0x1) == 0 )
 2166              		.loc 1 57 0
 2167 01e8 0D305BE5 		ldrb	r3, [fp, #-13]	@ zero_extendqisi2
 2168 01ec 013003E2 		and	r3, r3, #1
 2169 01f0 000053E3 		cmp	r3, #0
 2170 01f4 0100001A 		bne	.L15
  58:../src/keypad.c **** 				return KEYPAD_KEYF;
 2171              		.loc 1 58 0
 2172 01f8 0F30A0E3 		mov	r3, #15
 2173 01fc 000000EA 		b	.L4
 2174              	.L15:
  59:../src/keypad.c **** 		}
  60:../src/keypad.c **** 
  61:../src/keypad.c **** 
  62:../src/keypad.c ****     return KEYPAD_FAILURE;
 2175              		.loc 1 62 0
 2176 0200 FF30A0E3 		mov	r3, #255
 2177              	.L4:
  63:../src/keypad.c **** }
 2178              		.loc 1 63 0
 2179 0204 0300A0E1 		mov	r0, r3
 2180 0208 0CD04BE2 		sub	sp, fp, #12
 2181 020c 00689DE8 		ldmfd	sp, {fp, sp, lr}
 2182 0210 1EFF2FE1 		bx	lr
 2183              	.L20:
 2184              		.align	2
 2185              	.L19:
 2186 0214 1C000006 		.word	100663324
 2187 0218 1A000006 		.word	100663322
 2188 021c 16000006 		.word	100663318
 2189 0220 0E000006 		.word	100663310
 2190              		.cfi_endproc
 2191              	.LFE0:
 2193              		.align	2
 2194              		.global	keypad_pressed
 2196              	keypad_pressed:
 2197              	.LFB1:
  64:../src/keypad.c **** 
  65:../src/keypad.c **** uint8 keypad_pressed( void )
  66:../src/keypad.c **** {
 2198              		.loc 1 66 0
 2199              		.cfi_startproc
 2200              		@ Function supports interworking.
 2201              		@ args = 0, pretend = 0, frame = 0
 2202              		@ frame_needed = 1, uses_anonymous_args = 0
 2203 0224 0DC0A0E1 		mov	ip, sp
 2204              	.LCFI2:
 2205              		.cfi_def_cfa_register 12
 2206 0228 00D82DE9 		stmfd	sp!, {fp, ip, lr, pc}
 2207 022c 04B04CE2 		sub	fp, ip, #4
 2208              		.cfi_offset 14, -8
 2209              		.cfi_offset 13, -12
 2210              		.cfi_offset 11, -16
 2211              	.LCFI3:
 2212              		.cfi_def_cfa 11, 4
  67:../src/keypad.c **** 	if ((PDATG & (1 << 1)) == 0){
 2213              		.loc 1 67 0
 2214 0230 28309FE5 		ldr	r3, .L24
 2215 0234 003093E5 		ldr	r3, [r3, #0]
 2216 0238 023003E2 		and	r3, r3, #2
 2217 023c 000053E3 		cmp	r3, #0
 2218 0240 0100001A 		bne	.L22
  68:../src/keypad.c **** 		return '1';
 2219              		.loc 1 68 0
 2220 0244 3130A0E3 		mov	r3, #49
 2221 0248 000000EA 		b	.L23
 2222              	.L22:
  69:../src/keypad.c **** 	}
  70:../src/keypad.c **** 
  71:../src/keypad.c **** 	return 0;
 2223              		.loc 1 71 0
 2224 024c 0030A0E3 		mov	r3, #0
 2225              	.L23:
  72:../src/keypad.c **** }
 2226              		.loc 1 72 0
 2227 0250 0300A0E1 		mov	r0, r3
 2228 0254 0CD04BE2 		sub	sp, fp, #12
 2229 0258 00689DE8 		ldmfd	sp, {fp, sp, lr}
 2230 025c 1EFF2FE1 		bx	lr
 2231              	.L25:
 2232              		.align	2
 2233              	.L24:
 2234 0260 4400D201 		.word	30539844
 2235              		.cfi_endproc
 2236              	.LFE1:
 2238              		.align	2
 2239              		.global	keypad_open
 2241              	keypad_open:
 2242              	.LFB2:
  73:../src/keypad.c **** 
  74:../src/keypad.c **** void keypad_open( void (*isr)(void) )
  75:../src/keypad.c **** {
 2243              		.loc 1 75 0
 2244              		.cfi_startproc
 2245              		@ Function supports interworking.
 2246              		@ args = 0, pretend = 0, frame = 8
 2247              		@ frame_needed = 1, uses_anonymous_args = 0
 2248 0264 0DC0A0E1 		mov	ip, sp
 2249              	.LCFI4:
 2250              		.cfi_def_cfa_register 12
 2251 0268 00D82DE9 		stmfd	sp!, {fp, ip, lr, pc}
 2252 026c 04B04CE2 		sub	fp, ip, #4
 2253              		.cfi_offset 14, -8
 2254              		.cfi_offset 13, -12
 2255              		.cfi_offset 11, -16
 2256              	.LCFI5:
 2257              		.cfi_def_cfa 11, 4
 2258 0270 08D04DE2 		sub	sp, sp, #8
 2259 0274 10000BE5 		str	r0, [fp, #-16]
  76:../src/keypad.c **** 	pISR_KEYPAD = (uint32) isr;
 2260              		.loc 1 76 0
 2261 0278 30309FE5 		ldr	r3, .L27
 2262 027c 10201BE5 		ldr	r2, [fp, #-16]
 2263 0280 002083E5 		str	r2, [r3, #0]
  77:../src/keypad.c **** 	I_ISPC = BIT_KEYPAD;
 2264              		.loc 1 77 0
 2265 0284 28309FE5 		ldr	r3, .L27+4
 2266 0288 0124A0E3 		mov	r2, #16777216
 2267 028c 002083E5 		str	r2, [r3, #0]
  78:../src/keypad.c **** 	INTMSK &= ~(BIT_GLOBAL | BIT_KEYPAD);
 2268              		.loc 1 78 0
 2269 0290 20309FE5 		ldr	r3, .L27+8
 2270 0294 1C209FE5 		ldr	r2, .L27+8
 2271 0298 002092E5 		ldr	r2, [r2, #0]
 2272 029c 0524C2E3 		bic	r2, r2, #83886080
 2273 02a0 002083E5 		str	r2, [r3, #0]
  79:../src/keypad.c **** }
 2274              		.loc 1 79 0
 2275 02a4 0CD04BE2 		sub	sp, fp, #12
 2276 02a8 00689DE8 		ldmfd	sp, {fp, sp, lr}
 2277 02ac 1EFF2FE1 		bx	lr
 2278              	.L28:
 2279              		.align	2
 2280              	.L27:
 2281 02b0 80FF7F0C 		.word	209715072
 2282 02b4 2400E001 		.word	31457316
 2283 02b8 0C00E001 		.word	31457292
 2284              		.cfi_endproc
 2285              	.LFE2:
 2287              		.align	2
 2288              		.global	keypad_close
 2290              	keypad_close:
 2291              	.LFB3:
  80:../src/keypad.c **** 
  81:../src/keypad.c **** void keypad_close( void )
  82:../src/keypad.c **** {
 2292              		.loc 1 82 0
 2293              		.cfi_startproc
 2294              		@ Function supports interworking.
 2295              		@ args = 0, pretend = 0, frame = 0
 2296              		@ frame_needed = 1, uses_anonymous_args = 0
 2297 02bc 0DC0A0E1 		mov	ip, sp
 2298              	.LCFI6:
 2299              		.cfi_def_cfa_register 12
 2300 02c0 00D82DE9 		stmfd	sp!, {fp, ip, lr, pc}
 2301 02c4 04B04CE2 		sub	fp, ip, #4
 2302              		.cfi_offset 14, -8
 2303              		.cfi_offset 13, -12
 2304              		.cfi_offset 11, -16
 2305              	.LCFI7:
 2306              		.cfi_def_cfa 11, 4
  83:../src/keypad.c ****     INTMSK |= BIT_KEYPAD;
 2307              		.loc 1 83 0
 2308 02c8 24309FE5 		ldr	r3, .L30
 2309 02cc 20209FE5 		ldr	r2, .L30
 2310 02d0 002092E5 		ldr	r2, [r2, #0]
 2311 02d4 012482E3 		orr	r2, r2, #16777216
 2312 02d8 002083E5 		str	r2, [r3, #0]
  84:../src/keypad.c ****     pISR_KEYPAD = (uint32) isr_KEYPAD_dummy;
 2313              		.loc 1 84 0
 2314 02dc 14309FE5 		ldr	r3, .L30+4
 2315 02e0 14209FE5 		ldr	r2, .L30+8
 2316 02e4 002083E5 		str	r2, [r3, #0]
  85:../src/keypad.c **** }
 2317              		.loc 1 85 0
 2318 02e8 0CD04BE2 		sub	sp, fp, #12
 2319 02ec 00689DE8 		ldmfd	sp, {fp, sp, lr}
 2320 02f0 1EFF2FE1 		bx	lr
 2321              	.L31:
 2322              		.align	2
 2323              	.L30:
 2324 02f4 0C00E001 		.word	31457292
 2325 02f8 80FF7F0C 		.word	209715072
 2326 02fc 00000000 		.word	isr_KEYPAD_dummy
 2327              		.cfi_endproc
 2328              	.LFE3:
 2330              		.align	2
 2331              		.global	keypad_init
 2333              	keypad_init:
 2334              	.LFB4:
  86:../src/keypad.c **** 
  87:../src/keypad.c **** #if KEYPAD_IO_METHOD == POOLING
  88:../src/keypad.c **** 
  89:../src/keypad.c **** 
  90:../src/keypad.c **** void keypad_init( void )
  91:../src/keypad.c **** {
 2335              		.loc 1 91 0
 2336              		.cfi_startproc
 2337              		@ Function supports interworking.
 2338              		@ args = 0, pretend = 0, frame = 0
 2339              		@ frame_needed = 1, uses_anonymous_args = 0
 2340 0300 0DC0A0E1 		mov	ip, sp
 2341              	.LCFI8:
 2342              		.cfi_def_cfa_register 12
 2343 0304 00D82DE9 		stmfd	sp!, {fp, ip, lr, pc}
 2344 0308 04B04CE2 		sub	fp, ip, #4
 2345              		.cfi_offset 14, -8
 2346              		.cfi_offset 13, -12
 2347              		.cfi_offset 11, -16
 2348              	.LCFI9:
 2349              		.cfi_def_cfa 11, 4
  92:../src/keypad.c ****     timers_init();
 2350              		.loc 1 92 0
 2351 030c FEFFFFEB 		bl	timers_init
  93:../src/keypad.c **** 	EXTINT = (EXTINT & ~(0xf << 4)) | (2 << 4);
 2352              		.loc 1 93 0
 2353 0310 1C309FE5 		ldr	r3, .L33
 2354 0314 18209FE5 		ldr	r2, .L33
 2355 0318 002092E5 		ldr	r2, [r2, #0]
 2356 031c F020C2E3 		bic	r2, r2, #240
 2357 0320 202082E3 		orr	r2, r2, #32
 2358 0324 002083E5 		str	r2, [r3, #0]
  94:../src/keypad.c **** };
 2359              		.loc 1 94 0
 2360 0328 0CD04BE2 		sub	sp, fp, #12
 2361 032c 00689DE8 		ldmfd	sp, {fp, sp, lr}
 2362 0330 1EFF2FE1 		bx	lr
 2363              	.L34:
 2364              		.align	2
 2365              	.L33:
 2366 0334 5000D201 		.word	30539856
 2367              		.cfi_endproc
 2368              	.LFE4:
 2370              		.align	2
 2371              		.global	keypad_getchar
 2373              	keypad_getchar:
 2374              	.LFB5:
  95:../src/keypad.c **** 
  96:../src/keypad.c **** uint8 keypad_getchar( void )
  97:../src/keypad.c **** {
 2375              		.loc 1 97 0
 2376              		.cfi_startproc
 2377              		@ Function supports interworking.
 2378              		@ args = 0, pretend = 0, frame = 8
 2379              		@ frame_needed = 1, uses_anonymous_args = 0
 2380 0338 0DC0A0E1 		mov	ip, sp
 2381              	.LCFI10:
 2382              		.cfi_def_cfa_register 12
 2383 033c 00D82DE9 		stmfd	sp!, {fp, ip, lr, pc}
 2384 0340 04B04CE2 		sub	fp, ip, #4
 2385              		.cfi_offset 14, -8
 2386              		.cfi_offset 13, -12
 2387              		.cfi_offset 11, -16
 2388              	.LCFI11:
 2389              		.cfi_def_cfa 11, 4
 2390 0344 08D04DE2 		sub	sp, sp, #8
  98:../src/keypad.c ****     uint8 scancode;
  99:../src/keypad.c **** 
 100:../src/keypad.c ****     while(!keypad_pressed());	// Espera a que esté a 0
 2391              		.loc 1 100 0
 2392 0348 0000A0E1 		mov	r0, r0	@ nop
 2393              	.L36:
 2394              		.loc 1 100 0 is_stmt 0 discriminator 1
 2395 034c FEFFFFEB 		bl	keypad_pressed
 2396 0350 0030A0E1 		mov	r3, r0
 2397 0354 000053E3 		cmp	r3, #0
 2398 0358 FBFFFF0A 		beq	.L36
 101:../src/keypad.c ****     sw_delay_ms(KEYPAD_KEYDOWN_DELAY);
 2399              		.loc 1 101 0 is_stmt 1
 2400 035c 1E00A0E3 		mov	r0, #30
 2401 0360 FEFFFFEB 		bl	sw_delay_ms
 102:../src/keypad.c ****     scancode = keypad_scan();
 2402              		.loc 1 102 0
 2403 0364 FEFFFFEB 		bl	keypad_scan
 2404 0368 0030A0E1 		mov	r3, r0
 2405 036c 0D304BE5 		strb	r3, [fp, #-13]
 103:../src/keypad.c **** 
 104:../src/keypad.c ****     while(keypad_pressed()); // Espera a que sea distinto de 0
 2406              		.loc 1 104 0
 2407 0370 0000A0E1 		mov	r0, r0	@ nop
 2408              	.L37:
 2409              		.loc 1 104 0 is_stmt 0 discriminator 1
 2410 0374 FEFFFFEB 		bl	keypad_pressed
 2411 0378 0030A0E1 		mov	r3, r0
 2412 037c 000053E3 		cmp	r3, #0
 2413 0380 FBFFFF1A 		bne	.L37
 105:../src/keypad.c ****     sw_delay_ms(KEYPAD_KEYUP_DELAY);
 2414              		.loc 1 105 0 is_stmt 1
 2415 0384 6400A0E3 		mov	r0, #100
 2416 0388 FEFFFFEB 		bl	sw_delay_ms
 106:../src/keypad.c **** 
 107:../src/keypad.c ****     return scancode;
 2417              		.loc 1 107 0
 2418 038c 0D305BE5 		ldrb	r3, [fp, #-13]	@ zero_extendqisi2
 108:../src/keypad.c **** }
 2419              		.loc 1 108 0
 2420 0390 0300A0E1 		mov	r0, r3
 2421 0394 0CD04BE2 		sub	sp, fp, #12
 2422 0398 00689DE8 		ldmfd	sp, {fp, sp, lr}
 2423 039c 1EFF2FE1 		bx	lr
 2424              		.cfi_endproc
 2425              	.LFE5:
 2427              		.align	2
 2428              		.global	keypad_getchartime
 2430              	keypad_getchartime:
 2431              	.LFB6:
 109:../src/keypad.c **** 
 110:../src/keypad.c **** uint8 keypad_getchartime( uint16 *ms )
 111:../src/keypad.c **** {
 2432              		.loc 1 111 0
 2433              		.cfi_startproc
 2434              		@ Function supports interworking.
 2435              		@ args = 0, pretend = 0, frame = 16
 2436              		@ frame_needed = 1, uses_anonymous_args = 0
 2437 03a0 0DC0A0E1 		mov	ip, sp
 2438              	.LCFI12:
 2439              		.cfi_def_cfa_register 12
 2440 03a4 00D82DE9 		stmfd	sp!, {fp, ip, lr, pc}
 2441 03a8 04B04CE2 		sub	fp, ip, #4
 2442              		.cfi_offset 14, -8
 2443              		.cfi_offset 13, -12
 2444              		.cfi_offset 11, -16
 2445              	.LCFI13:
 2446              		.cfi_def_cfa 11, 4
 2447 03ac 10D04DE2 		sub	sp, sp, #16
 2448 03b0 18000BE5 		str	r0, [fp, #-24]
 112:../src/keypad.c ****     uint8 scancode;
 113:../src/keypad.c **** 
 114:../src/keypad.c ****     while(!keypad_pressed());	// Espera a que esté a 0
 2449              		.loc 1 114 0
 2450 03b4 0000A0E1 		mov	r0, r0	@ nop
 2451              	.L39:
 2452              		.loc 1 114 0 is_stmt 0 discriminator 1
 2453 03b8 FEFFFFEB 		bl	keypad_pressed
 2454 03bc 0030A0E1 		mov	r3, r0
 2455 03c0 000053E3 		cmp	r3, #0
 2456 03c4 FBFFFF0A 		beq	.L39
 115:../src/keypad.c ****     timer3_start();
 2457              		.loc 1 115 0 is_stmt 1
 2458 03c8 FEFFFFEB 		bl	timer3_start
 116:../src/keypad.c ****     sw_delay_ms(KEYPAD_KEYDOWN_DELAY);
 2459              		.loc 1 116 0
 2460 03cc 1E00A0E3 		mov	r0, #30
 2461 03d0 FEFFFFEB 		bl	sw_delay_ms
 117:../src/keypad.c ****     scancode = keypad_scan();
 2462              		.loc 1 117 0
 2463 03d4 FEFFFFEB 		bl	keypad_scan
 2464 03d8 0030A0E1 		mov	r3, r0
 2465 03dc 0D304BE5 		strb	r3, [fp, #-13]
 118:../src/keypad.c **** 
 119:../src/keypad.c ****     while(keypad_pressed()); // Espera a que sea distinto de 0
 2466              		.loc 1 119 0
 2467 03e0 0000A0E1 		mov	r0, r0	@ nop
 2468              	.L40:
 2469              		.loc 1 119 0 is_stmt 0 discriminator 1
 2470 03e4 FEFFFFEB 		bl	keypad_pressed
 2471 03e8 0030A0E1 		mov	r3, r0
 2472 03ec 000053E3 		cmp	r3, #0
 2473 03f0 FBFFFF1A 		bne	.L40
 120:../src/keypad.c ****     *ms = timer3_stop() /10;
 2474              		.loc 1 120 0 is_stmt 1
 2475 03f4 FEFFFFEB 		bl	timer3_stop
 2476 03f8 0030A0E1 		mov	r3, r0
 2477 03fc 0320A0E1 		mov	r2, r3
 2478 0400 30309FE5 		ldr	r3, .L41
 2479 0404 921383E0 		umull	r1, r3, r2, r3
 2480 0408 A331A0E1 		mov	r3, r3, lsr #3
 2481 040c 0338A0E1 		mov	r3, r3, asl #16
 2482 0410 2328A0E1 		mov	r2, r3, lsr #16
 2483 0414 18301BE5 		ldr	r3, [fp, #-24]
 2484 0418 B020C3E1 		strh	r2, [r3, #0]	@ movhi
 121:../src/keypad.c ****     sw_delay_ms(KEYPAD_KEYUP_DELAY);
 2485              		.loc 1 121 0
 2486 041c 6400A0E3 		mov	r0, #100
 2487 0420 FEFFFFEB 		bl	sw_delay_ms
 122:../src/keypad.c **** 
 123:../src/keypad.c ****     return scancode;
 2488              		.loc 1 123 0
 2489 0424 0D305BE5 		ldrb	r3, [fp, #-13]	@ zero_extendqisi2
 124:../src/keypad.c **** }
 2490              		.loc 1 124 0
 2491 0428 0300A0E1 		mov	r0, r3
 2492 042c 0CD04BE2 		sub	sp, fp, #12
 2493 0430 00689DE8 		ldmfd	sp, {fp, sp, lr}
 2494 0434 1EFF2FE1 		bx	lr
 2495              	.L42:
 2496              		.align	2
 2497              	.L41:
 2498 0438 CDCCCCCC 		.word	-858993459
 2499              		.cfi_endproc
 2500              	.LFE6:
 2502              		.align	2
 2503              		.global	keypad_timeout_getchar
 2505              	keypad_timeout_getchar:
 2506              	.LFB7:
 125:../src/keypad.c **** 
 126:../src/keypad.c **** uint8 keypad_timeout_getchar( uint16 ms )
 127:../src/keypad.c **** {
 2507              		.loc 1 127 0
 2508              		.cfi_startproc
 2509              		@ Function supports interworking.
 2510              		@ args = 0, pretend = 0, frame = 16
 2511              		@ frame_needed = 1, uses_anonymous_args = 0
 2512 043c 0DC0A0E1 		mov	ip, sp
 2513              	.LCFI14:
 2514              		.cfi_def_cfa_register 12
 2515 0440 00D82DE9 		stmfd	sp!, {fp, ip, lr, pc}
 2516 0444 04B04CE2 		sub	fp, ip, #4
 2517              		.cfi_offset 14, -8
 2518              		.cfi_offset 13, -12
 2519              		.cfi_offset 11, -16
 2520              	.LCFI15:
 2521              		.cfi_def_cfa 11, 4
 2522 0448 10D04DE2 		sub	sp, sp, #16
 2523 044c 0030A0E1 		mov	r3, r0
 2524 0450 B6314BE1 		strh	r3, [fp, #-22]	@ movhi
 128:../src/keypad.c **** 	uint8 scancode;
 129:../src/keypad.c **** 
 130:../src/keypad.c **** 	timer3_start_timeout(10*ms);
 2525              		.loc 1 130 0
 2526 0454 B6315BE1 		ldrh	r3, [fp, #-22]	@ movhi
 2527 0458 0320A0E1 		mov	r2, r3	@ movhi
 2528 045c 0221A0E1 		mov	r2, r2, asl #2
 2529 0460 033082E0 		add	r3, r2, r3
 2530 0464 8330A0E1 		mov	r3, r3, asl #1
 2531 0468 0338A0E1 		mov	r3, r3, asl #16
 2532 046c 2338A0E1 		mov	r3, r3, lsr #16
 2533 0470 0300A0E1 		mov	r0, r3
 2534 0474 FEFFFFEB 		bl	timer3_start_timeout
 131:../src/keypad.c **** 	while(!timer3_timeout() && !keypad_pressed()); // Espera que sea 0
 2535              		.loc 1 131 0
 2536 0478 0000A0E1 		mov	r0, r0	@ nop
 2537              	.L45:
 2538              		.loc 1 131 0 is_stmt 0 discriminator 1
 2539 047c FEFFFFEB 		bl	timer3_timeout
 2540 0480 0030A0E1 		mov	r3, r0
 2541 0484 000053E3 		cmp	r3, #0
 2542 0488 0300001A 		bne	.L44
 2543              		.loc 1 131 0 discriminator 2
 2544 048c FEFFFFEB 		bl	keypad_pressed
 2545 0490 0030A0E1 		mov	r3, r0
 2546 0494 000053E3 		cmp	r3, #0
 2547 0498 F7FFFF0A 		beq	.L45
 2548              	.L44:
 132:../src/keypad.c **** 	if (timer3_timeout()){
 2549              		.loc 1 132 0 is_stmt 1
 2550 049c FEFFFFEB 		bl	timer3_timeout
 2551 04a0 0030A0E1 		mov	r3, r0
 2552 04a4 000053E3 		cmp	r3, #0
 2553 04a8 0100000A 		beq	.L46
 133:../src/keypad.c **** 		return KEYPAD_TIMEOUT;
 2554              		.loc 1 133 0
 2555 04ac FE30A0E3 		mov	r3, #254
 2556 04b0 100000EA 		b	.L47
 2557              	.L46:
 134:../src/keypad.c **** 	}
 135:../src/keypad.c **** 	else{
 136:../src/keypad.c **** 		sw_delay_ms(KEYPAD_KEYDOWN_DELAY);
 2558              		.loc 1 136 0
 2559 04b4 1E00A0E3 		mov	r0, #30
 2560 04b8 FEFFFFEB 		bl	sw_delay_ms
 137:../src/keypad.c **** 		scancode = keypad_scan();
 2561              		.loc 1 137 0
 2562 04bc FEFFFFEB 		bl	keypad_scan
 2563 04c0 0030A0E1 		mov	r3, r0
 2564 04c4 0D304BE5 		strb	r3, [fp, #-13]
 138:../src/keypad.c **** 
 139:../src/keypad.c **** 		while(timer3_timeout() && keypad_pressed()); // Espera a que sea distinto de 0
 2565              		.loc 1 139 0
 2566 04c8 0000A0E1 		mov	r0, r0	@ nop
 2567              	.L49:
 2568              		.loc 1 139 0 is_stmt 0 discriminator 1
 2569 04cc FEFFFFEB 		bl	timer3_timeout
 2570 04d0 0030A0E1 		mov	r3, r0
 2571 04d4 000053E3 		cmp	r3, #0
 2572 04d8 0300000A 		beq	.L48
 2573              		.loc 1 139 0 discriminator 2
 2574 04dc FEFFFFEB 		bl	keypad_pressed
 2575 04e0 0030A0E1 		mov	r3, r0
 2576 04e4 000053E3 		cmp	r3, #0
 2577 04e8 F7FFFF1A 		bne	.L49
 2578              	.L48:
 140:../src/keypad.c **** 		sw_delay_ms(KEYPAD_KEYUP_DELAY);
 2579              		.loc 1 140 0 is_stmt 1
 2580 04ec 6400A0E3 		mov	r0, #100
 2581 04f0 FEFFFFEB 		bl	sw_delay_ms
 141:../src/keypad.c **** 
 142:../src/keypad.c **** 		return scancode;
 2582              		.loc 1 142 0
 2583 04f4 0D305BE5 		ldrb	r3, [fp, #-13]	@ zero_extendqisi2
 2584              	.L47:
 143:../src/keypad.c **** 	}
 144:../src/keypad.c **** }
 2585              		.loc 1 144 0
 2586 04f8 0300A0E1 		mov	r0, r3
 2587 04fc 0CD04BE2 		sub	sp, fp, #12
 2588 0500 00689DE8 		ldmfd	sp, {fp, sp, lr}
 2589 0504 1EFF2FE1 		bx	lr
 2590              		.cfi_endproc
 2591              	.LFE7:
 2593              	.Letext0: